
CASE_4.elf:     file format elf32-littlenios2
CASE_4.elf
architecture: nios2:r1, flags 0x00000112:
EXEC_P, HAS_SYMS, D_PAGED
start address 0x04000230

Program Header:
    LOAD off    0x00001000 vaddr 0x04000000 paddr 0x04000000 align 2**12
         filesz 0x00000020 memsz 0x00000020 flags r-x
    LOAD off    0x00001020 vaddr 0x04000020 paddr 0x04000020 align 2**12
         filesz 0x00011a60 memsz 0x00011a60 flags r-x
    LOAD off    0x00012a80 vaddr 0x04011a80 paddr 0x0401356c align 2**12
         filesz 0x00001aec memsz 0x00001aec flags rw-
    LOAD off    0x00015058 vaddr 0x04015058 paddr 0x04015058 align 2**12
         filesz 0x00000000 memsz 0x000001a0 flags rw-

Sections:
Idx Name          Size      VMA       LMA       File off  Algn
  0 .entry        00000020  04000000  04000000  00001000  2**5
                  CONTENTS, ALLOC, LOAD, READONLY, CODE
  1 .exceptions   00000210  04000020  04000020  00001020  2**2
                  CONTENTS, ALLOC, LOAD, READONLY, CODE
  2 .text         00010a8c  04000230  04000230  00001230  2**2
                  CONTENTS, ALLOC, LOAD, READONLY, CODE
  3 .rodata       00000dc4  04010cbc  04010cbc  00011cbc  2**2
                  CONTENTS, ALLOC, LOAD, READONLY, DATA
  4 .rwdata       00001aec  04011a80  0401356c  00012a80  2**2
                  CONTENTS, ALLOC, LOAD, DATA, SMALL_DATA
  5 .bss          000001a0  04015058  04015058  00015058  2**2
                  ALLOC, SMALL_DATA
  6 .sdram_controller 00000000  040151f8  040151f8  0001456c  2**0
                  CONTENTS
  7 .onchip_ram   00000000  08084000  08084000  0001456c  2**0
                  CONTENTS
  8 .comment      00000023  00000000  00000000  0001456c  2**0
                  CONTENTS, READONLY
  9 .debug_aranges 00000f38  00000000  00000000  00014590  2**3
                  CONTENTS, READONLY, DEBUGGING
 10 .debug_info   00024028  00000000  00000000  000154c8  2**0
                  CONTENTS, READONLY, DEBUGGING
 11 .debug_abbrev 000094aa  00000000  00000000  000394f0  2**0
                  CONTENTS, READONLY, DEBUGGING
 12 .debug_line   0000bc1c  00000000  00000000  0004299a  2**0
                  CONTENTS, READONLY, DEBUGGING
 13 .debug_frame  00002194  00000000  00000000  0004e5b8  2**2
                  CONTENTS, READONLY, DEBUGGING
 14 .debug_str    00003a35  00000000  00000000  0005074c  2**0
                  CONTENTS, READONLY, DEBUGGING
 15 .debug_loc    00019972  00000000  00000000  00054181  2**0
                  CONTENTS, READONLY, DEBUGGING
 16 .debug_alt_sim_info 00000010  00000000  00000000  0006daf4  2**2
                  CONTENTS, READONLY, DEBUGGING
 17 .debug_ranges 00001d20  00000000  00000000  0006db08  2**3
                  CONTENTS, READONLY, DEBUGGING
 18 .thread_model 00000003  00000000  00000000  00072a46  2**0
                  CONTENTS, READONLY
 19 .cpu          00000003  00000000  00000000  00072a49  2**0
                  CONTENTS, READONLY
 20 .qsys         00000001  00000000  00000000  00072a4c  2**0
                  CONTENTS, READONLY
 21 .simulation_enabled 00000001  00000000  00000000  00072a4d  2**0
                  CONTENTS, READONLY
 22 .sysid_hash   00000004  00000000  00000000  00072a4e  2**0
                  CONTENTS, READONLY
 23 .sysid_base   00000004  00000000  00000000  00072a52  2**0
                  CONTENTS, READONLY
 24 .sysid_time   00000004  00000000  00000000  00072a56  2**0
                  CONTENTS, READONLY
 25 .stderr_dev   00000009  00000000  00000000  00072a5a  2**0
                  CONTENTS, READONLY
 26 .stdin_dev    00000009  00000000  00000000  00072a63  2**0
                  CONTENTS, READONLY
 27 .stdout_dev   00000009  00000000  00000000  00072a6c  2**0
                  CONTENTS, READONLY
 28 .sopc_system_name 00000018  00000000  00000000  00072a75  2**0
                  CONTENTS, READONLY
 29 .quartus_project_dir 00000031  00000000  00000000  00072a8d  2**0
                  CONTENTS, READONLY
 30 .jdi          00005f97  00000000  00000000  00072abe  2**0
                  CONTENTS, READONLY
 31 .sopcinfo     000773bf  00000000  00000000  00078a55  2**0
                  CONTENTS, READONLY
SYMBOL TABLE:
04000000 l    d  .entry	00000000 .entry
04000020 l    d  .exceptions	00000000 .exceptions
04000230 l    d  .text	00000000 .text
04010cbc l    d  .rodata	00000000 .rodata
04011a80 l    d  .rwdata	00000000 .rwdata
04015058 l    d  .bss	00000000 .bss
040151f8 l    d  .sdram_controller	00000000 .sdram_controller
08084000 l    d  .onchip_ram	00000000 .onchip_ram
00000000 l    d  .comment	00000000 .comment
00000000 l    d  .debug_aranges	00000000 .debug_aranges
00000000 l    d  .debug_info	00000000 .debug_info
00000000 l    d  .debug_abbrev	00000000 .debug_abbrev
00000000 l    d  .debug_line	00000000 .debug_line
00000000 l    d  .debug_frame	00000000 .debug_frame
00000000 l    d  .debug_str	00000000 .debug_str
00000000 l    d  .debug_loc	00000000 .debug_loc
00000000 l    d  .debug_alt_sim_info	00000000 .debug_alt_sim_info
00000000 l    d  .debug_ranges	00000000 .debug_ranges
00000000 l    df *ABS*	00000000 ../CASE_4_bsp//obj/HAL/src/crt0.o
04000268 l       .text	00000000 alt_after_alt_main
00000000 l    df *ABS*	00000000 alt_irq_handler.c
00000000 l    df *ABS*	00000000 alt_instruction_exception_entry.c
00000000 l    df *ABS*	00000000 main.c
04015090 l     O .bss	00000040 taps.2605
04011748 l     O .rodata	00000040 coeffs.2604
00000000 l    df *ABS*	00000000 addsf3.c
00000000 l    df *ABS*	00000000 lesf2.c
00000000 l    df *ABS*	00000000 mulsf3.c
00000000 l    df *ABS*	00000000 subsf3.c
00000000 l    df *ABS*	00000000 extendsfdf2.c
00000000 l    df *ABS*	00000000 libgcc2.c
00000000 l    df *ABS*	00000000 lib2-mul.c
00000000 l    df *ABS*	00000000 libgcc2.c
00000000 l    df *ABS*	00000000 memcpy.c
00000000 l    df *ABS*	00000000 printf.c
00000000 l    df *ABS*	00000000 puts.c
00000000 l    df *ABS*	00000000 strlen.c
00000000 l    df *ABS*	00000000 vfprintf.c
040118ce l     O .rodata	00000010 zeroes.4404
04003d88 l     F .text	000000bc __sbprintf
040118de l     O .rodata	00000010 blanks.4403
00000000 l    df *ABS*	00000000 wsetup.c
00000000 l    df *ABS*	00000000 dtoa.c
04003f98 l     F .text	00000228 quorem
00000000 l    df *ABS*	00000000 fflush.c
00000000 l    df *ABS*	00000000 findfp.c
04005af0 l     F .text	00000008 __fp_unlock
04005b04 l     F .text	0000019c __sinit.part.1
04005ca0 l     F .text	00000008 __fp_lock
00000000 l    df *ABS*	00000000 mallocr.c
00000000 l    df *ABS*	00000000 fvwrite.c
00000000 l    df *ABS*	00000000 fwalk.c
00000000 l    df *ABS*	00000000 impure.c
04011a80 l     O .rwdata	00000424 impure_data
00000000 l    df *ABS*	00000000 locale.c
04011ec4 l     O .rwdata	00000020 lc_ctype_charset
04011ea4 l     O .rwdata	00000020 lc_message_charset
04011ee4 l     O .rwdata	00000038 lconv
00000000 l    df *ABS*	00000000 makebuf.c
00000000 l    df *ABS*	00000000 mallocr.c
00000000 l    df *ABS*	00000000 memchr.c
00000000 l    df *ABS*	00000000 memmove.c
00000000 l    df *ABS*	00000000 memset.c
00000000 l    df *ABS*	00000000 mprec.c
04011910 l     O .rodata	0000000c p05.2768
00000000 l    df *ABS*	00000000 mallocr.c
00000000 l    df *ABS*	00000000 s_fpclassify.c
00000000 l    df *ABS*	00000000 sbrkr.c
00000000 l    df *ABS*	00000000 stdio.c
00000000 l    df *ABS*	00000000 strcmp.c
00000000 l    df *ABS*	00000000 vfprintf.c
0400902c l     F .text	000000fc __sprint_r.part.0
04011a34 l     O .rodata	00000010 zeroes.4349
0400a668 l     F .text	000000bc __sbprintf
04011a44 l     O .rodata	00000010 blanks.4348
00000000 l    df *ABS*	00000000 writer.c
00000000 l    df *ABS*	00000000 closer.c
00000000 l    df *ABS*	00000000 mallocr.c
00000000 l    df *ABS*	00000000 fclose.c
00000000 l    df *ABS*	00000000 fputwc.c
00000000 l    df *ABS*	00000000 fstatr.c
00000000 l    df *ABS*	00000000 int_errno.c
00000000 l    df *ABS*	00000000 isattyr.c
00000000 l    df *ABS*	00000000 lseekr.c
00000000 l    df *ABS*	00000000 readr.c
00000000 l    df *ABS*	00000000 wbuf.c
00000000 l    df *ABS*	00000000 wcrtomb.c
00000000 l    df *ABS*	00000000 wctomb_r.c
00000000 l    df *ABS*	00000000 libgcc2.c
00000000 l    df *ABS*	00000000 libgcc2.c
00000000 l    df *ABS*	00000000 lib2-divmod.c
00000000 l    df *ABS*	00000000 adddf3.c
00000000 l    df *ABS*	00000000 divdf3.c
00000000 l    df *ABS*	00000000 eqdf2.c
00000000 l    df *ABS*	00000000 gedf2.c
00000000 l    df *ABS*	00000000 ledf2.c
00000000 l    df *ABS*	00000000 muldf3.c
00000000 l    df *ABS*	00000000 subdf3.c
00000000 l    df *ABS*	00000000 fixdfsi.c
00000000 l    df *ABS*	00000000 floatsidf.c
00000000 l    df *ABS*	00000000 floatunsidf.c
00000000 l    df *ABS*	00000000 alt_close.c
0400e624 l     F .text	0000003c alt_get_errno
00000000 l    df *ABS*	00000000 alt_dev.c
0400e738 l     F .text	0000002c alt_dev_null_write
00000000 l    df *ABS*	00000000 alt_errno.c
00000000 l    df *ABS*	00000000 alt_fstat.c
0400e764 l     F .text	0000003c alt_get_errno
00000000 l    df *ABS*	00000000 alt_isatty.c
0400e858 l     F .text	0000003c alt_get_errno
00000000 l    df *ABS*	00000000 alt_load.c
0400e940 l     F .text	00000068 alt_load_section
00000000 l    df *ABS*	00000000 alt_lseek.c
0400ea2c l     F .text	0000003c alt_get_errno
00000000 l    df *ABS*	00000000 alt_main.c
00000000 l    df *ABS*	00000000 alt_malloc_lock.c
00000000 l    df *ABS*	00000000 alt_read.c
0400ec08 l     F .text	0000003c alt_get_errno
00000000 l    df *ABS*	00000000 alt_release_fd.c
00000000 l    df *ABS*	00000000 alt_sbrk.c
0401355c l     O .rwdata	00000004 heap_end
00000000 l    df *ABS*	00000000 alt_write.c
0400ee7c l     F .text	0000003c alt_get_errno
00000000 l    df *ABS*	00000000 alt_sys_init.c
0400efb8 l     F .text	00000034 alt_dev_reg
040124cc l     O .rwdata	00001060 jtag_uart
00000000 l    df *ABS*	00000000 altera_avalon_jtag_uart_fd.c
00000000 l    df *ABS*	00000000 altera_avalon_jtag_uart_init.c
0400f294 l     F .text	0000020c altera_avalon_jtag_uart_irq
0400f4a0 l     F .text	000000a0 altera_avalon_jtag_uart_timeout
00000000 l    df *ABS*	00000000 altera_avalon_jtag_uart_ioctl.c
00000000 l    df *ABS*	00000000 altera_avalon_jtag_uart_read.c
00000000 l    df *ABS*	00000000 altera_avalon_jtag_uart_write.c
00000000 l    df *ABS*	00000000 alt_alarm_start.c
00000000 l    df *ABS*	00000000 alt_dcache_flush_all.c
00000000 l    df *ABS*	00000000 alt_dev_llist_insert.c
0400fc24 l     F .text	0000003c alt_get_errno
00000000 l    df *ABS*	00000000 alt_do_ctors.c
00000000 l    df *ABS*	00000000 alt_do_dtors.c
00000000 l    df *ABS*	00000000 alt_icache_flush_all.c
00000000 l    df *ABS*	00000000 alt_iic.c
00000000 l    df *ABS*	00000000 alt_iic_isr_register.c
00000000 l    df *ABS*	00000000 alt_io_redirect.c
04010084 l     F .text	000000e4 alt_open_fd
00000000 l    df *ABS*	00000000 alt_irq_vars.c
00000000 l    df *ABS*	00000000 alt_open.c
040101e4 l     F .text	0000003c alt_get_errno
04010220 l     F .text	000000ec alt_file_locked
00000000 l    df *ABS*	00000000 alt_tick.c
00000000 l    df *ABS*	00000000 altera_nios2_gen2_irq.c
00000000 l    df *ABS*	00000000 alt_find_dev.c
00000000 l    df *ABS*	00000000 alt_find_file.c
00000000 l    df *ABS*	00000000 alt_get_fd.c
00000000 l    df *ABS*	00000000 atexit.c
00000000 l    df *ABS*	00000000 exit.c
00000000 l    df *ABS*	00000000 memcmp.c
00000000 l    df *ABS*	00000000 __atexit.c
00000000 l    df *ABS*	00000000 __call_atexit.c
00000000 l    df *ABS*	00000000 alt_exit.c
0401508c g     O .bss	00000004 alt_instruction_exception_handler
04008670 g     F .text	00000074 _mprec_log10
0400875c g     F .text	0000008c __any_on
0400ac1c g     F .text	00000054 _isatty_r
0401191c g     O .rodata	00000028 __mprec_tinytens
0400eb44 g     F .text	0000007c alt_main
04001924 g     F .text	000000c0 _puts_r
040150f8 g     O .bss	00000100 alt_irq
0400ac70 g     F .text	00000060 _lseek_r
0401356c g       *ABS*	00000000 __flash_rwdata_start
0400d060 g     F .text	00000088 .hidden __eqdf2
040151f8 g       *ABS*	00000000 __alt_heap_start
040018e8 g     F .text	0000003c printf
0400ae88 g     F .text	0000009c _wcrtomb_r
04008eec g     F .text	0000005c __sseek
04005e50 g     F .text	00000010 __sinit
0400ad30 g     F .text	00000140 __swbuf_r
04006924 g     F .text	0000007c _setlocale_r
04005ca8 g     F .text	00000078 __sfmoreglue
0400ebe4 g     F .text	00000024 __malloc_unlock
040074ac g     F .text	0000015c memmove
04005e38 g     F .text	00000018 _cleanup
04007730 g     F .text	000000a8 _Balloc
0400d0e8 g     F .text	000000dc .hidden __gtdf2
0401060c g     F .text	00000024 altera_nios2_gen2_irq_init
04000000 g     F .entry	0000000c __reset
04000020 g       *ABS*	00000000 __flash_exceptions_start
0400abc0 g     F .text	0000005c _fstat_r
04015070 g     O .bss	00000004 errno
04008e68 g     F .text	00000008 __seofread
04000000 g       *ABS*	00000000 __alt_mem_sdram_controller
04015078 g     O .bss	00000004 alt_argv
0401b52c g       *ABS*	00000000 _gp
040010f0 g     F .text	000004e4 .hidden __subsf3
0401234c g     O .rwdata	00000180 alt_fd_list
04010630 g     F .text	00000090 alt_find_dev
04001770 g     F .text	00000148 memcpy
04005af8 g     F .text	0000000c _cleanup_r
0400e4a0 g     F .text	000000dc .hidden __floatsidf
04010168 g     F .text	0000007c alt_io_redirect
0400d1c4 g     F .text	000000f4 .hidden __ltdf2
04010cbc g       *ABS*	00000000 __DTOR_END__
040019e4 g     F .text	00000014 puts
0401088c g     F .text	0000009c alt_exception_cause_generated_bad_addr
04008d4c g     F .text	00000074 __fpclassifyd
040085cc g     F .text	000000a4 __ratio
0400a64c g     F .text	0000001c __vfiprintf_internal
0400f698 g     F .text	0000021c altera_avalon_jtag_uart_read
040018b8 g     F .text	00000030 _printf_r
0400bd28 g     F .text	00000064 .hidden __udivsi3
0400e894 g     F .text	000000ac isatty
0401196c g     O .rodata	000000c8 __mprec_tens
040069a0 g     F .text	0000000c __locale_charset
04000bf8 g     F .text	000000c8 .hidden __lesf2
0401506c g     O .bss	00000004 __malloc_top_pad
04013534 g     O .rwdata	00000004 __mb_cur_max
040069d0 g     F .text	0000000c _localeconv_r
04007b64 g     F .text	0000003c __i2b
040062d4 g     F .text	000004c8 __sfvwrite_r
04008dc0 g     F .text	00000054 _sbrk_r
0400acd0 g     F .text	00000060 _read_r
04013554 g     O .rwdata	00000004 alt_max_fd
0400a8b4 g     F .text	000000f0 _fclose_r
04005ac0 g     F .text	00000030 fflush
04015068 g     O .bss	00000004 __malloc_max_sbrked_mem
040015d4 g     F .text	00000110 .hidden __extendsfdf2
0400bde4 g     F .text	000008ac .hidden __adddf3
04008374 g     F .text	0000010c __b2d
0400b66c g     F .text	000005c4 .hidden __umoddi3
0400ea68 g     F .text	000000dc lseek
0401352c g     O .rwdata	00000004 _global_impure_ptr
040087e8 g     F .text	00000564 _realloc_r
040151f8 g       *ABS*	00000000 __bss_end
0400ff94 g     F .text	000000f0 alt_iic_isr_register
04010504 g     F .text	00000108 alt_tick
0400b070 g     F .text	000005fc .hidden __udivdi3
0400ab1c g     F .text	00000024 _fputwc_r
04011944 g     O .rodata	00000028 __mprec_bigtens
04007948 g     F .text	00000104 __s2b
0400e57c g     F .text	000000a8 .hidden __floatunsidf
040080b4 g     F .text	00000060 __mcmp
04005e70 g     F .text	00000018 __fp_lock_all
0400ff48 g     F .text	0000004c alt_ic_irq_enabled
04010468 g     F .text	0000009c alt_alarm_stop
04015080 g     O .bss	00000004 alt_irq_active
040000fc g     F .exceptions	000000d4 alt_irq_handler
04012324 g     O .rwdata	00000028 alt_dev_null
0400fc04 g     F .text	00000020 alt_dcache_flush_all
04007a4c g     F .text	00000068 __hi0bits
0400e420 g     F .text	00000080 .hidden __fixdfsi
0400026c g     F .text	00000114 fir_filter_nios
0401356c g       *ABS*	00000000 __ram_rwdata_end
0401354c g     O .rwdata	00000008 alt_dev_list
0400eeb8 g     F .text	00000100 write
04011a80 g       *ABS*	00000000 __ram_rodata_end
0400e7a0 g     F .text	000000b8 fstat
0400d1c4 g     F .text	000000f4 .hidden __ledf2
04007e2c g     F .text	00000140 __pow5mult
04009140 g     F .text	0000150c ___vfiprintf_internal_r
04015060 g     O .bss	00000004 __nlocale_changed
0400bd8c g     F .text	00000058 .hidden __umodsi3
040151f8 g       *ABS*	00000000 end
0400f1d4 g     F .text	000000c0 altera_avalon_jtag_uart_init
040001d0 g     F .exceptions	00000060 alt_instruction_exception_entry
04010cbc g       *ABS*	00000000 __CTOR_LIST__
08000000 g       *ABS*	00000000 __alt_stack_pointer
040016e4 g     F .text	00000064 .hidden __clzsi2
0400f8b4 g     F .text	00000224 altera_avalon_jtag_uart_write
04005e60 g     F .text	00000004 __sfp_lock_acquire
040073c8 g     F .text	000000e4 memchr
04001a90 g     F .text	000022dc ___vfprintf_internal_r
04005fc4 g     F .text	00000310 _free_r
040069ac g     F .text	00000010 __locale_mb_cur_max
04010b08 g     F .text	00000180 __call_exitprocs
0401505c g     O .bss	00000004 __mlocale_changed
04013538 g     O .rwdata	00000004 __malloc_sbrk_base
04000230 g     F .text	0000003c _start
04015084 g     O .bss	00000004 _alt_tick_rate
04007f6c g     F .text	00000148 __lshift
04015088 g     O .bss	00000004 _alt_nticks
0400ec44 g     F .text	00000104 read
0400f024 g     F .text	0000004c alt_sys_init
040109f0 g     F .text	00000118 __register_exitproc
04007ba0 g     F .text	0000028c __multiply
0400f540 g     F .text	00000068 altera_avalon_jtag_uart_close
04001748 g     F .text	00000028 .hidden __mulsi3
04011a80 g       *ABS*	00000000 __ram_rwdata_start
04010cbc g       *ABS*	00000000 __ram_rodata_start
040150d0 g     O .bss	00000028 __malloc_current_mallinfo
04008480 g     F .text	0000014c __d2b
0400f070 g     F .text	00000060 altera_avalon_jtag_uart_read_fd
040107c8 g     F .text	000000c4 alt_get_fd
0400a784 g     F .text	00000054 _close_r
04010974 g     F .text	0000007c memcmp
0400f130 g     F .text	00000050 altera_avalon_jtag_uart_close_fd
040151f8 g       *ABS*	00000000 __alt_stack_base
0400f180 g     F .text	00000054 altera_avalon_jtag_uart_ioctl_fd
04003e44 g     F .text	00000154 __swsetup_r
0400c690 g     F .text	000009d0 .hidden __divdf3
04005d20 g     F .text	00000118 __sfp
040086e4 g     F .text	00000078 __copybits
04011f1c g     O .rwdata	00000408 __malloc_av_
04005e6c g     F .text	00000004 __sinit_lock_release
0400d2b8 g     F .text	0000086c .hidden __muldf3
04008e14 g     F .text	00000054 __sread
040106c0 g     F .text	00000108 alt_find_file
0400fc60 g     F .text	000000a4 alt_dev_llist_insert
0400ebc0 g     F .text	00000024 __malloc_lock
0400edcc g     F .text	000000b0 sbrk
04005a64 g     F .text	0000005c _fflush_r
0400a7d8 g     F .text	000000dc _calloc_r
04015058 g       *ABS*	00000000 __bss_start
04007608 g     F .text	00000128 memset
04000380 g     F .text	000003b0 main
0401507c g     O .bss	00000004 alt_envp
04015064 g     O .bss	00000004 __malloc_max_total_mem
0400f0d0 g     F .text	00000060 altera_avalon_jtag_uart_write_fd
0400ae70 g     F .text	00000018 __swbuf
04000bf8 g     F .text	000000c8 .hidden __ltsf2
04008f48 g     F .text	00000008 __sclose
08000000 g       *ABS*	00000000 __alt_heap_limit
0400a9a4 g     F .text	00000014 fclose
040041c0 g     F .text	00001688 _dtoa_r
04006bbc g     F .text	0000080c _malloc_r
0400afe4 g     F .text	00000030 __ascii_wctomb
04013558 g     O .rwdata	00000004 alt_errno
0400679c g     F .text	000000c4 _fwalk
0400bc30 g     F .text	00000084 .hidden __divsi3
04005ea0 g     F .text	00000124 _malloc_trim_r
04010cbc g       *ABS*	00000000 __CTOR_END__
04000cc0 g     F .text	00000430 .hidden __mulsf3
04008f50 g     F .text	000000dc strcmp
04010cbc g       *ABS*	00000000 __flash_rodata_start
04010cbc g       *ABS*	00000000 __DTOR_LIST__
0400d060 g     F .text	00000088 .hidden __nedf2
0400efec g     F .text	00000038 alt_irq_init
0400ed48 g     F .text	00000084 alt_release_fd
04011788 g     O .rodata	00000100 .hidden __clz_tab
04015058 g     O .bss	00000004 _PathLocale
04010928 g     F .text	00000014 atexit
0400a724 g     F .text	00000060 _write_r
040069dc g     F .text	00000018 setlocale
04013530 g     O .rwdata	00000004 _impure_ptr
04015074 g     O .bss	00000004 alt_argc
04005848 g     F .text	0000021c __sflush_r
0400fd64 g     F .text	00000060 _do_dtors
040069c8 g     F .text	00000008 __locale_cjk_lang
04000020 g       .exceptions	00000000 alt_irq_entry
04008310 g     F .text	00000064 __ulp
04005e88 g     F .text	00000018 __fp_unlock_all
04013544 g     O .rwdata	00000008 alt_fs_list
04000020 g       *ABS*	00000000 __ram_exceptions_start
040069f4 g     F .text	0000000c localeconv
0400fde4 g     F .text	00000050 alt_ic_isr_register
0401356c g       *ABS*	00000000 _edata
040151f8 g       *ABS*	00000000 _end
0400a9b8 g     F .text	00000164 __fputwc
04000230 g       *ABS*	00000000 __ram_exceptions_end
0400f5a8 g     F .text	000000f0 altera_avalon_jtag_uart_ioctl
0400febc g     F .text	0000008c alt_ic_irq_disable
04008e70 g     F .text	0000007c __swrite
0401353c g     O .rwdata	00000004 __malloc_trim_threshold
040069bc g     F .text	0000000c __locale_msgcharset
0401093c g     F .text	00000038 exit
04006860 g     F .text	000000c4 _fwalk_reent
04008114 g     F .text	000001fc __mdiff
0400bcb4 g     F .text	00000074 .hidden __modsi3
08000000 g       *ABS*	00000000 __alt_data_end
04000020 g     F .exceptions	00000000 alt_exception
04005e64 g     F .text	00000004 __sfp_lock_release
08084000 g       *ABS*	00000000 __alt_mem_onchip_ram
04010c88 g     F .text	00000034 _exit
0400fad8 g     F .text	0000012c alt_alarm_start
04006a00 g     F .text	000001bc __smakebuf_r
040019f8 g     F .text	00000098 strlen
0401030c g     F .text	0000015c open
0400d0e8 g     F .text	000000dc .hidden __gedf2
04013540 g     O .rwdata	00000004 __wctomb
04009128 g     F .text	00000018 __sprint_r
0400fdc4 g     F .text	00000020 alt_icache_flush_all
04013560 g     O .rwdata	00000004 alt_priority_mask
0400fe34 g     F .text	00000088 alt_ic_irq_enable
04003d6c g     F .text	0000001c __vfprintf_internal
0400b014 g     F .text	0000005c _wctomb_r
0400db24 g     F .text	000008fc .hidden __subdf3
04007ab4 g     F .text	000000b0 __lo0bits
04013564 g     O .rwdata	00000008 alt_alarm_list
0400fd04 g     F .text	00000060 _do_ctors
0400af24 g     F .text	000000c0 wcrtomb
0400e660 g     F .text	000000d8 close
04000730 g     F .text	000004c8 .hidden __addsf3
0400e9a8 g     F .text	00000084 alt_load
0400ab40 g     F .text	00000080 fputwc
04005e68 g     F .text	00000004 __sinit_lock_acquire
04007800 g     F .text	00000148 __multadd
040077d8 g     F .text	00000028 _Bfree



Disassembly of section .entry:

04000000 <__reset>:
 * Jump to the _start entry point in the .text section if reset code
 * is allowed or if optimizing for RTL simulation.
 */
#if defined(ALT_ALLOW_CODE_AT_RESET) || defined(ALT_SIM_OPTIMIZE)
    /* Jump to the _start entry point in the .text section. */
    movhi r1, %hi(_start)
 4000000:	00410034 	movhi	at,1024
    ori r1, r1, %lo(_start)
 4000004:	08408c14 	ori	at,at,560
    jmp r1
 4000008:	0800683a 	jmp	at
	...

Disassembly of section .exceptions:

04000020 <alt_exception>:

#else /* ALT_EXCEPTION_STACK disabled */
        /* 
         * Reserve space on normal stack for registers about to be pushed.
         */
        addi  sp, sp, -76
 4000020:	deffed04 	addi	sp,sp,-76
         * documentation for details).
         *
         * Leave a gap in the stack frame at 4(sp) for the muldiv handler to
         * store zero into.
         */
        stw   ra,  0(sp)
 4000024:	dfc00015 	stw	ra,0(sp)
        stw   r1,   8(sp)
 4000028:	d8400215 	stw	at,8(sp)
        stw   r2,  12(sp)
 400002c:	d8800315 	stw	r2,12(sp)
        stw   r3,  16(sp)
 4000030:	d8c00415 	stw	r3,16(sp)
        stw   r4,  20(sp)
 4000034:	d9000515 	stw	r4,20(sp)
        stw   r5,  24(sp)
 4000038:	d9400615 	stw	r5,24(sp)
        stw   r6,  28(sp)
 400003c:	d9800715 	stw	r6,28(sp)
        stw   r7,  32(sp)
 4000040:	d9c00815 	stw	r7,32(sp)
        rdctl r5, estatus   /* Read early to avoid usage stall */
 4000044:	000b307a 	rdctl	r5,estatus
        stw   r8,  36(sp)
 4000048:	da000915 	stw	r8,36(sp)
        stw   r9,  40(sp)
 400004c:	da400a15 	stw	r9,40(sp)
        stw   r10, 44(sp)
 4000050:	da800b15 	stw	r10,44(sp)
        stw   r11, 48(sp)
 4000054:	dac00c15 	stw	r11,48(sp)
        stw   r12, 52(sp)
 4000058:	db000d15 	stw	r12,52(sp)
        stw   r13, 56(sp)
 400005c:	db400e15 	stw	r13,56(sp)
        stw   r14, 60(sp)
 4000060:	db800f15 	stw	r14,60(sp)
        stw   r15, 64(sp)
 4000064:	dbc01015 	stw	r15,64(sp)
        /*
         * ea-4 contains the address of the instruction being executed
         * when the exception occured. For interrupt exceptions, we will
         * will be re-issue the isntruction. Store it in 72(sp)
         */
        stw   r5,  68(sp)  /* estatus */
 4000068:	d9401115 	stw	r5,68(sp)
        addi  r15, ea, -4  /* instruction that caused exception */
 400006c:	ebffff04 	addi	r15,ea,-4
        stw   r15,  72(sp)
 4000070:	dbc01215 	stw	r15,72(sp)
#else
        /*
         * Test to see if the exception was a software exception or caused 
         * by an external interrupt, and vector accordingly.
         */
        rdctl r4, ipending
 4000074:	0009313a 	rdctl	r4,ipending
        andi  r2, r5, 1
 4000078:	2880004c 	andi	r2,r5,1
        beq   r2, zero, .Lnot_irq
 400007c:	10000326 	beq	r2,zero,400008c <alt_exception+0x6c>
        beq   r4, zero, .Lnot_irq
 4000080:	20000226 	beq	r4,zero,400008c <alt_exception+0x6c>
        /*
         * Now that all necessary registers have been preserved, call 
         * alt_irq_handler() to process the interrupts.
         */

        call alt_irq_handler
 4000084:	40000fc0 	call	40000fc <alt_irq_handler>

        .section .exceptions.irqreturn, "xa"

        br    .Lexception_exit
 4000088:	00000706 	br	40000a8 <alt_exception+0x88>
         * upon completion, so we write ea (address of instruction *after*
         * the one where the exception occured) into 72(sp). The actual
         * instruction that caused the exception is written in r2, which these
         * handlers will utilize.
         */
        stw ea, 72(sp) /* EA is PC+4 so will skip over instruction causing exception */
 400008c:	df401215 	stw	ea,72(sp)
.Lunknown_16bit:
        addi.n r4, r4, 2 /* Need PC+2 to skip over instruction causing exception */
        stw r4, 72(sp)

#else /* CDX is not Enabled and all instructions are 32bits */
        ldw r2, -4(ea) /* Instruction value that caused exception */
 4000090:	e8bfff17 	ldw	r2,-4(ea)
         * debugger is present) or go into an infinite loop since the
         * handling behavior is undefined; in that case we will not return here.
         */

        /* Load exception-causing address as first argument (r4) */
        addi   r4, ea, -4
 4000094:	e93fff04 	addi	r4,ea,-4

        /* Call the instruction-exception entry */
        call   alt_instruction_exception_entry
 4000098:	40001d00 	call	40001d0 <alt_instruction_exception_entry>
         * instruction
         *
         * Return code was 0: Skip. The instruction after the exception is
         * already stored in 72(sp).
         */
        bne   r2, r0, .Lexception_exit
 400009c:	1000021e 	bne	r2,zero,40000a8 <alt_exception+0x88>

        /*
         * Otherwise, modify 72(sp) to re-issue the instruction that caused the
         * exception.
         */
        addi  r15, ea, -4  /* instruction that caused exception */
 40000a0:	ebffff04 	addi	r15,ea,-4
        stw   r15,  72(sp)
 40000a4:	dbc01215 	stw	r15,72(sp)
        /* 
         * Restore the saved registers, so that all general purpose registers 
         * have been restored to their state at the time the interrupt occured.
         */

        ldw   r5,  68(sp)
 40000a8:	d9401117 	ldw	r5,68(sp)
        ldw   ea,  72(sp)  /* This becomes the PC once eret is executed */
 40000ac:	df401217 	ldw	ea,72(sp)
        ldw   ra,   0(sp)
 40000b0:	dfc00017 	ldw	ra,0(sp)

        wrctl estatus, r5
 40000b4:	2801707a 	wrctl	estatus,r5

        ldw   r1,   8(sp)
 40000b8:	d8400217 	ldw	at,8(sp)
        ldw   r2,  12(sp)
 40000bc:	d8800317 	ldw	r2,12(sp)
        ldw   r3,  16(sp)
 40000c0:	d8c00417 	ldw	r3,16(sp)
        ldw   r4,  20(sp)
 40000c4:	d9000517 	ldw	r4,20(sp)
        ldw   r5,  24(sp)
 40000c8:	d9400617 	ldw	r5,24(sp)
        ldw   r6,  28(sp)
 40000cc:	d9800717 	ldw	r6,28(sp)
        ldw   r7,  32(sp)
 40000d0:	d9c00817 	ldw	r7,32(sp)

#if defined(ALT_EXCEPTION_STACK) && defined(ALT_STACK_CHECK)
        ldw   et, %gprel(alt_exception_old_stack_limit)(gp)
#endif

        ldw   r8,  36(sp)
 40000d4:	da000917 	ldw	r8,36(sp)
        ldw   r9,  40(sp)
 40000d8:	da400a17 	ldw	r9,40(sp)
        ldw   r10, 44(sp)
 40000dc:	da800b17 	ldw	r10,44(sp)
        ldw   r11, 48(sp)
 40000e0:	dac00c17 	ldw	r11,48(sp)
        ldw   r12, 52(sp)
 40000e4:	db000d17 	ldw	r12,52(sp)
        ldw   r13, 56(sp)
 40000e8:	db400e17 	ldw	r13,56(sp)
        ldw   r14, 60(sp)
 40000ec:	db800f17 	ldw	r14,60(sp)
        ldw   r15, 64(sp)
 40000f0:	dbc01017 	ldw	r15,64(sp)
        stw   et, %gprel(alt_stack_limit_value)(gp)
        stw   zero, %gprel(alt_exception_old_stack_limit)(gp)
#endif /* ALT_STACK_CHECK */
        ldw   sp,  76(sp)
#else /* ALT_EXCEPTION_STACK disabled */
        addi  sp, sp, 76
 40000f4:	dec01304 	addi	sp,sp,76

        /*
         * Return to the interrupted instruction.
         */

        eret
 40000f8:	ef80083a 	eret

040000fc <alt_irq_handler>:
 * instruction is present if the macro ALT_CI_INTERRUPT_VECTOR defined.
 */

void alt_irq_handler (void) __attribute__ ((section (".exceptions")));
void alt_irq_handler (void)
{
 40000fc:	defff904 	addi	sp,sp,-28
 4000100:	dfc00615 	stw	ra,24(sp)
 4000104:	df000515 	stw	fp,20(sp)
 4000108:	df000504 	addi	fp,sp,20
  
  /*
   * Notify the operating system that we are at interrupt level.
   */ 
  
  ALT_OS_INT_ENTER();
 400010c:	0001883a 	nop
#ifndef NIOS2_EIC_PRESENT
static ALT_INLINE alt_u32 ALT_ALWAYS_INLINE alt_irq_pending (void)
{
  alt_u32 active;

  NIOS2_READ_IPENDING (active);
 4000110:	0005313a 	rdctl	r2,ipending
 4000114:	e0bffe15 	stw	r2,-8(fp)

  return active;
 4000118:	e0bffe17 	ldw	r2,-8(fp)
   * Consider the case where the high priority interupt is asserted during
   * the interrupt entry sequence for a lower priority interrupt to see why
   * this is the case.
   */

  active = alt_irq_pending ();
 400011c:	e0bffb15 	stw	r2,-20(fp)

  do
  {
    i = 0;
 4000120:	e03ffd15 	stw	zero,-12(fp)
    mask = 1;
 4000124:	00800044 	movi	r2,1
 4000128:	e0bffc15 	stw	r2,-16(fp)
     * called to clear the interrupt condition.
     */

    do
    {
      if (active & mask)
 400012c:	e0fffb17 	ldw	r3,-20(fp)
 4000130:	e0bffc17 	ldw	r2,-16(fp)
 4000134:	1884703a 	and	r2,r3,r2
 4000138:	10001426 	beq	r2,zero,400018c <alt_irq_handler+0x90>
      { 
#ifdef ALT_ENHANCED_INTERRUPT_API_PRESENT
        alt_irq[i].handler(alt_irq[i].context); 
 400013c:	00810074 	movhi	r2,1025
 4000140:	10943e04 	addi	r2,r2,20728
 4000144:	e0fffd17 	ldw	r3,-12(fp)
 4000148:	180690fa 	slli	r3,r3,3
 400014c:	10c5883a 	add	r2,r2,r3
 4000150:	10c00017 	ldw	r3,0(r2)
 4000154:	00810074 	movhi	r2,1025
 4000158:	10943e04 	addi	r2,r2,20728
 400015c:	e13ffd17 	ldw	r4,-12(fp)
 4000160:	200890fa 	slli	r4,r4,3
 4000164:	1105883a 	add	r2,r2,r4
 4000168:	10800104 	addi	r2,r2,4
 400016c:	10800017 	ldw	r2,0(r2)
 4000170:	1009883a 	mov	r4,r2
 4000174:	183ee83a 	callr	r3
#else
        alt_irq[i].handler(alt_irq[i].context, i); 
#endif
        break;
 4000178:	0001883a 	nop
#ifndef NIOS2_EIC_PRESENT
static ALT_INLINE alt_u32 ALT_ALWAYS_INLINE alt_irq_pending (void)
{
  alt_u32 active;

  NIOS2_READ_IPENDING (active);
 400017c:	0005313a 	rdctl	r2,ipending
 4000180:	e0bfff15 	stw	r2,-4(fp)

  return active;
 4000184:	e0bfff17 	ldw	r2,-4(fp)
 4000188:	00000706 	br	40001a8 <alt_irq_handler+0xac>
      }
      mask <<= 1;
 400018c:	e0bffc17 	ldw	r2,-16(fp)
 4000190:	1085883a 	add	r2,r2,r2
 4000194:	e0bffc15 	stw	r2,-16(fp)
      i++;
 4000198:	e0bffd17 	ldw	r2,-12(fp)
 400019c:	10800044 	addi	r2,r2,1
 40001a0:	e0bffd15 	stw	r2,-12(fp)

    } while (1);
 40001a4:	003fe106 	br	400012c <__alt_mem_onchip_ram+0xfbf7c12c>

    active = alt_irq_pending ();
 40001a8:	e0bffb15 	stw	r2,-20(fp)
    
  } while (active);
 40001ac:	e0bffb17 	ldw	r2,-20(fp)
 40001b0:	103fdb1e 	bne	r2,zero,4000120 <__alt_mem_onchip_ram+0xfbf7c120>

  /*
   * Notify the operating system that interrupt processing is complete.
   */ 

  ALT_OS_INT_EXIT();
 40001b4:	0001883a 	nop
}
 40001b8:	0001883a 	nop
 40001bc:	e037883a 	mov	sp,fp
 40001c0:	dfc00117 	ldw	ra,4(sp)
 40001c4:	df000017 	ldw	fp,0(sp)
 40001c8:	dec00204 	addi	sp,sp,8
 40001cc:	f800283a 	ret

040001d0 <alt_instruction_exception_entry>:
 * that handler if it has been registered. Absent a handler, it will
 * break break or hang as discussed below.
 */
int 
alt_instruction_exception_entry (alt_u32 exception_pc)
{
 40001d0:	defffb04 	addi	sp,sp,-20
 40001d4:	dfc00415 	stw	ra,16(sp)
 40001d8:	df000315 	stw	fp,12(sp)
 40001dc:	df000304 	addi	fp,sp,12
 40001e0:	e13fff15 	stw	r4,-4(fp)
  cause = ( (cause & NIOS2_EXCEPTION_REG_CAUSE_MASK) >>
              NIOS2_EXCEPTION_REG_CAUSE_OFST );

  NIOS2_READ_BADADDR(badaddr);
#else
  cause = NIOS2_EXCEPTION_CAUSE_NOT_PRESENT;
 40001e4:	00bfffc4 	movi	r2,-1
 40001e8:	e0bffd15 	stw	r2,-12(fp)
  badaddr = 0;
 40001ec:	e03ffe15 	stw	zero,-8(fp)
#endif /* NIOS2_HAS_EXTRA_EXCEPTION_INFO */

  if(alt_instruction_exception_handler) {
 40001f0:	d0a6d817 	ldw	r2,-25760(gp)
 40001f4:	10000726 	beq	r2,zero,4000214 <alt_instruction_exception_entry+0x44>
     * Call handler. Its return value indicates whether the exception-causing
     * instruction should be re-issued. The code that called us,
     * alt_eceptions_entry.S, will look at this value and adjust the ea
     * register as necessary
     */
    return alt_instruction_exception_handler(cause, exception_pc, badaddr);
 40001f8:	d0a6d817 	ldw	r2,-25760(gp)
 40001fc:	e0fffd17 	ldw	r3,-12(fp)
 4000200:	e1bffe17 	ldw	r6,-8(fp)
 4000204:	e17fff17 	ldw	r5,-4(fp)
 4000208:	1809883a 	mov	r4,r3
 400020c:	103ee83a 	callr	r2
 4000210:	00000206 	br	400021c <alt_instruction_exception_entry+0x4c>
   *    (a peripheral which negates its interrupt output before its
   *    interrupt handler has been executed will cause spurious interrupts)
   */
  else {
#ifdef NIOS2_HAS_DEBUG_STUB
    NIOS2_BREAK();
 4000214:	003da03a 	break	0
      ;
#endif /* NIOS2_HAS_DEBUG_STUB */
  }

  /* We should not get here. Remove compiler warning. */
  return NIOS2_EXCEPTION_RETURN_REISSUE_INST;
 4000218:	0005883a 	mov	r2,zero
}
 400021c:	e037883a 	mov	sp,fp
 4000220:	dfc00117 	ldw	ra,4(sp)
 4000224:	df000017 	ldw	fp,0(sp)
 4000228:	dec00204 	addi	sp,sp,8
 400022c:	f800283a 	ret

Disassembly of section .text:

04000230 <_start>:

    /*
     * Now that the caches are initialized, set up the stack pointer and global pointer.
     * The values provided by the linker are assumed to be correctly aligned.
     */
    movhi sp, %hi(__alt_stack_pointer)
 4000230:	06c20034 	movhi	sp,2048
    ori sp, sp, %lo(__alt_stack_pointer)
 4000234:	dec00014 	ori	sp,sp,0
    movhi gp, %hi(_gp)
 4000238:	06810074 	movhi	gp,1025
    ori gp, gp, %lo(_gp)
 400023c:	d6ad4b14 	ori	gp,gp,46380
 */
#ifndef ALT_SIM_OPTIMIZE
    /* Log that the BSS is about to be cleared. */
    ALT_LOG_PUTS(alt_log_msg_bss)

    movhi r2, %hi(__bss_start)
 4000240:	00810074 	movhi	r2,1025
    ori r2, r2, %lo(__bss_start)
 4000244:	10941614 	ori	r2,r2,20568

    movhi r3, %hi(__bss_end)
 4000248:	00c10074 	movhi	r3,1025
    ori r3, r3, %lo(__bss_end)
 400024c:	18d47e14 	ori	r3,r3,20984

    beq r2, r3, 1f
 4000250:	10c00326 	beq	r2,r3,4000260 <_start+0x30>

0:
    stw zero, (r2)
 4000254:	10000015 	stw	zero,0(r2)
    addi r2, r2, 4
 4000258:	10800104 	addi	r2,r2,4
    bltu r2, r3, 0b
 400025c:	10fffd36 	bltu	r2,r3,4000254 <__alt_mem_onchip_ram+0xfbf7c254>
     * section aren't defined until alt_load() has been called).
     */
    mov   et, zero
#endif

    call alt_load
 4000260:	400e9a80 	call	400e9a8 <alt_load>

    /* Log that alt_main is about to be called. */
    ALT_LOG_PUTS(alt_log_msg_alt_main)

    /* Call the C entry point. It should never return. */
    call alt_main
 4000264:	400eb440 	call	400eb44 <alt_main>

04000268 <alt_after_alt_main>:

    /* Wait in infinite loop in case alt_main does return. */
alt_after_alt_main:
    br alt_after_alt_main
 4000268:	003fff06 	br	4000268 <__alt_mem_onchip_ram+0xfbf7c268>

0400026c <fir_filter_nios>:

#define SAMPLES 320
#define COEFFICIENTS 16

void fir_filter_nios(float samples,
                     float results){
 400026c:	defff904 	addi	sp,sp,-28
 4000270:	dfc00615 	stw	ra,24(sp)
 4000274:	df000515 	stw	fp,20(sp)
 4000278:	df000504 	addi	fp,sp,20
 400027c:	e13ffe15 	stw	r4,-8(fp)
 4000280:	e17fff15 	stw	r5,-4(fp)
                                             0.910522,0.800537,0.745789,0.813110,
                                             0.383301,0.617249,0.575439,0.530029};

  static float taps[COEFFICIENTS];

  float y = 0.0;
 4000284:	e03ffb15 	stw	zero,-20(fp)

  // shift in input data
  for(int i = (COEFFICIENTS - 1); i > 0; --i) {
 4000288:	008003c4 	movi	r2,15
 400028c:	e0bffc15 	stw	r2,-16(fp)
 4000290:	00001206 	br	40002dc <fir_filter_nios+0x70>
    taps[i] = taps[i-1];
 4000294:	e0bffc17 	ldw	r2,-16(fp)
 4000298:	10ffffc4 	addi	r3,r2,-1
 400029c:	00810074 	movhi	r2,1025
 40002a0:	10942404 	addi	r2,r2,20624
 40002a4:	18c7883a 	add	r3,r3,r3
 40002a8:	18c7883a 	add	r3,r3,r3
 40002ac:	10c5883a 	add	r2,r2,r3
 40002b0:	11000017 	ldw	r4,0(r2)
 40002b4:	00810074 	movhi	r2,1025
 40002b8:	10942404 	addi	r2,r2,20624
 40002bc:	e0fffc17 	ldw	r3,-16(fp)
 40002c0:	18c7883a 	add	r3,r3,r3
 40002c4:	18c7883a 	add	r3,r3,r3
 40002c8:	10c5883a 	add	r2,r2,r3
 40002cc:	11000015 	stw	r4,0(r2)
  static float taps[COEFFICIENTS];

  float y = 0.0;

  // shift in input data
  for(int i = (COEFFICIENTS - 1); i > 0; --i) {
 40002d0:	e0bffc17 	ldw	r2,-16(fp)
 40002d4:	10bfffc4 	addi	r2,r2,-1
 40002d8:	e0bffc15 	stw	r2,-16(fp)
 40002dc:	e0bffc17 	ldw	r2,-16(fp)
 40002e0:	00bfec16 	blt	zero,r2,4000294 <__alt_mem_onchip_ram+0xfbf7c294>
    taps[i] = taps[i-1];
  }

  // accumulate over all taps
  for(int i = (COEFFICIENTS - 1); i >= 0; --i) {
 40002e4:	008003c4 	movi	r2,15
 40002e8:	e0bffd15 	stw	r2,-12(fp)
 40002ec:	00001a06 	br	4000358 <fir_filter_nios+0xec>
    y += taps[i] * coeffs[i];
 40002f0:	00810074 	movhi	r2,1025
 40002f4:	10942404 	addi	r2,r2,20624
 40002f8:	e0fffd17 	ldw	r3,-12(fp)
 40002fc:	18c7883a 	add	r3,r3,r3
 4000300:	18c7883a 	add	r3,r3,r3
 4000304:	10c5883a 	add	r2,r2,r3
 4000308:	11000017 	ldw	r4,0(r2)
 400030c:	00810074 	movhi	r2,1025
 4000310:	1085d204 	addi	r2,r2,5960
 4000314:	e0fffd17 	ldw	r3,-12(fp)
 4000318:	18c7883a 	add	r3,r3,r3
 400031c:	18c7883a 	add	r3,r3,r3
 4000320:	10c5883a 	add	r2,r2,r3
 4000324:	10c00017 	ldw	r3,0(r2)
 4000328:	180b883a 	mov	r5,r3
 400032c:	4000cc00 	call	4000cc0 <__mulsf3>
 4000330:	1007883a 	mov	r3,r2
 4000334:	1805883a 	mov	r2,r3
 4000338:	100b883a 	mov	r5,r2
 400033c:	e13ffb17 	ldw	r4,-20(fp)
 4000340:	40007300 	call	4000730 <__addsf3>
 4000344:	1007883a 	mov	r3,r2
 4000348:	e0fffb15 	stw	r3,-20(fp)
  for(int i = (COEFFICIENTS - 1); i > 0; --i) {
    taps[i] = taps[i-1];
  }

  // accumulate over all taps
  for(int i = (COEFFICIENTS - 1); i >= 0; --i) {
 400034c:	e0bffd17 	ldw	r2,-12(fp)
 4000350:	10bfffc4 	addi	r2,r2,-1
 4000354:	e0bffd15 	stw	r2,-12(fp)
 4000358:	e0bffd17 	ldw	r2,-12(fp)
 400035c:	103fe40e 	bge	r2,zero,40002f0 <__alt_mem_onchip_ram+0xfbf7c2f0>
    y += taps[i] * coeffs[i];
  }
  results = y;
 4000360:	e0bffb17 	ldw	r2,-20(fp)
 4000364:	e0bfff15 	stw	r2,-4(fp)
}
 4000368:	0001883a 	nop
 400036c:	e037883a 	mov	sp,fp
 4000370:	dfc00117 	ldw	ra,4(sp)
 4000374:	df000017 	ldw	fp,0(sp)
 4000378:	dec00204 	addi	sp,sp,8
 400037c:	f800283a 	ret

04000380 <main>:



int main(){
 4000380:	defc3504 	addi	sp,sp,-3884
 4000384:	dfc3ca15 	stw	ra,3880(sp)
 4000388:	df03c915 	stw	fp,3876(sp)
 400038c:	df03c904 	addi	fp,sp,3876

float samples[SAMPLES] = {0.325806,0.345764,0.311218,0.352112,0.325806,0.368164,0.331116,0.378479,0.345825,0.375366,0.352539,0.384155,0.364746,0.392883,0.406799,0.397827,0.427124,0.405396,0.428772,0.407532,0.444519,0.421265,0.462097,0.441833,0.465759,0.448181,0.480347,0.449280,0.498962,0.458923,0.511108,0.485596,0.504700,0.490173,0.524780,0.497925,0.525940,0.518066,0.548157,0.519226,0.552429,0.517456,0.547485,0.540344,0.564087,0.546021,0.577698,0.548035,0.563477,0.545410,0.570679,0.553589,0.598572,0.568726,0.600586,0.568054,0.610535,0.568115,0.615723,0.577209,0.618286,0.582947,0.620728,0.592407,0.621826,0.598022,0.627075,0.606689,0.617676,0.590271,0.630188,0.608154,0.638123,0.600098,0.620483,0.609131,0.621521,0.595703,0.633423,0.614868,0.636719,0.613403,0.637939,0.609436,0.621460,0.601685,0.620911,0.602783,0.621521,0.611938,0.619568,0.599060,0.621887,0.594482,0.618530,0.592468,0.611511,0.582764,0.602112,0.596008,0.613770,0.572449,0.604919,0.578552,0.593445,0.577271,0.583740,0.560547,0.599976,0.569885,0.587524,0.545471,0.573303,0.557251,0.556763,0.539429,0.558594,0.523010,0.553589,0.526550,0.532349,0.517151,0.524048,0.513916,0.534363,0.492554,0.520996,0.479675,0.497131,0.487183,0.503296,0.465088,0.494873,0.450256,0.476318,0.461121,0.469421,0.439941,0.463257,0.422729,0.447998,0.414124,0.431885,0.400330,0.429932,0.389404,0.412781,0.385071,0.405457,0.383484,0.385986,0.369446,0.368042,0.349243,0.372803,0.346924,0.362427,0.322693,0.355347,0.309509,0.330688,0.302551,0.315735,0.292603,0.301636,0.275818,0.297913,0.270630,0.292114,0.252686,0.263916,0.234131,0.274048,0.234497,0.252930,0.225708,0.241150,0.209106,0.225586,0.197205,0.218689,0.184814,0.216919,0.170654,0.195801,0.166870,0.196533,0.152710,0.183228,0.148987,0.155457,0.127930,0.159485,0.116089,0.151001,0.106201,0.145264,0.102722,0.132996,0.106689,0.108459,0.084167,0.108398,0.092102,0.092712,0.079590,0.089600,0.063416,0.096802,0.071289,0.075195,0.051331,0.076904,0.039734,0.072632,0.038635,0.060120,0.047241,0.063660,0.028870,0.064270,0.039490,0.042419,0.026306,0.050964,0.015930,0.031860,0.011658,0.040039,0.018127,0.036011,0.007324,0.039185,0.013306,0.031860,0.004761,0.022888,0.008057,0.029785,0.017578,0.040894,0.001465,0.023315,0.007385,0.028809,0.019897,0.037720,0.012634,0.024414,0.006836,0.039612,0.020996,0.050354,0.020630,0.047974,0.012939,0.052979,0.031738,0.044739,0.020386,0.044128,0.042603,0.061279,0.027588,0.072327,0.044800,0.069763,0.036255,0.072754,0.046204,0.081299,0.054443,0.095886,0.071533,0.091309,0.069092,0.111023,0.074829,0.124573,0.102112,0.108643,0.088074,0.124451,0.100891,0.129944,0.116089,0.153809,0.126892,0.149963,0.136414,0.160889,0.151794,0.165466,0.144409,0.191406,0.163269,0.188843,0.172119,0.219116,0.179749,0.215942,0.203125,0.229675,0.202820,0.233276,0.230347,0.258911,0.224670,0.250488,0.247864,0.284424,0.250854,0.273071,0.272705,0.290955,0.270386,0.318726,0.289063,0.323486,0.299438};
 4000390:	00810074 	movhi	r2,1025
 4000394:	10835204 	addi	r2,r2,3400
 4000398:	e0fc4004 	addi	r3,fp,-3840
 400039c:	1009883a 	mov	r4,r2
 40003a0:	00814004 	movi	r2,1280
 40003a4:	100d883a 	mov	r6,r2
 40003a8:	200b883a 	mov	r5,r4
 40003ac:	1809883a 	mov	r4,r3
 40003b0:	40017700 	call	4001770 <memcpy>
float ref_result[320] = {0.059711,0.077871,0.308082,0.441543,0.635350,0.797830,0.977402,1.038975,1.296372,1.643296,1.836964,2.184047,2.274144,2.557777,2.735663,2.980330,3.011487,3.048910,3.114190,3.134253,3.207030,3.202753,3.315891,3.298000,3.420614,3.417305,3.520111,3.518152,3.621056,3.614128,3.712463,3.716098,3.803042,3.810050,3.898114,3.897572,3.993986,3.993594,4.070067,4.096663,4.162470,4.176553,4.248966,4.256997,4.318514,4.336266,4.404492,4.408775,4.487362,4.482511,4.525013,4.533298,4.588857,4.586046,4.655856,4.650345,4.710591,4.698774,4.769199,4.735541,4.823556,4.795197,4.874352,4.843754,4.927964,4.903775,4.980952,4.965878,5.017409,5.005745,5.045206,5.034653,5.076019,5.068699,5.109195,5.099554,5.131428,5.104655,5.136939,5.110401,5.160525,5.143346,5.165089,5.146295,5.180086,5.153939,5.179566,5.149765,5.172810,5.154760,5.179552,5.160893,5.175780,5.153745,5.164224,5.128724,5.140242,5.108168,5.119854,5.076242,5.099053,5.059055,5.085376,5.039075,5.058092,5.009200,5.010079,4.974324,4.991537,4.938869,4.959576,4.910804,4.919093,4.879820,4.885351,4.820965,4.825612,4.778560,4.790042,4.725453,4.716690,4.671748,4.657237,4.611512,4.595474,4.525511,4.525088,4.469759,4.456087,4.392564,4.376677,4.315076,4.327070,4.247975,4.257454,4.174378,4.160870,4.103997,4.103151,4.024501,4.024733,3.939320,3.921482,3.861594,3.852144,3.769365,3.766771,3.675901,3.668184,3.595445,3.580236,3.501524,3.481224,3.412441,3.378722,3.317830,3.288826,3.237235,3.212238,3.145503,3.123961,3.034005,3.026368,2.940914,2.932039,2.836968,2.824853,2.738387,2.720980,2.650593,2.617914,2.540175,2.511654,2.424693,2.412857,2.329685,2.327031,2.247691,2.230299,2.136228,2.129427,2.054465,2.040744,1.961629,1.944925,1.863025,1.858891,1.776422,1.771482,1.677440,1.683267,1.594068,1.578138,1.494426,1.495000,1.408265,1.409975,1.329624,1.320584,1.234805,1.240733,1.154117,1.150692,1.070544,1.059308,1.000250,0.979858,0.946105,0.915365,0.863509,0.846306,0.806375,0.786961,0.734097,0.728891,0.647304,0.667701,0.614453,0.617759,0.556226,0.571225,0.501091,0.523632,0.475604,0.463364,0.419973,0.432123,0.376953,0.384474,0.348452,0.349956,0.309665,0.326002,0.271528,0.287059,0.238582,0.246960,0.204181,0.226460,0.184417,0.201865,0.176190,0.205934,0.174322,0.184333,0.154106,0.174234,0.158068,0.192597,0.161849,0.179302,0.156230,0.184526,0.174574,0.217857,0.190251,0.224467,0.188682,0.240973,0.218397,0.269661,0.242063,0.281936,0.261217,0.308754,0.303212,0.348581,0.330737,0.360766,0.341339,0.404447,0.375976,0.441478,0.415471,0.487352,0.476476,0.536390,0.514175,0.584509,0.573484,0.642020,0.644061,0.699357,0.693162,0.763448,0.753190,0.823656,0.844326,0.898780,0.898925,0.959727,0.967107,1.026511,1.041311,1.099295,1.105231,1.178728,1.194036,1.258766,1.277445,1.364470,1.352192,1.437669,1.442927,1.525100,1.528110,1.613844,1.626186,1.706231,1.729918,1.795781,1.820192,1.893308,1.912952,1.986024,2.013458,2.077633,2.086173,2.179111,2.202001};
 40003b4:	00810074 	movhi	r2,1025
 40003b8:	10849204 	addi	r2,r2,4680
 40003bc:	e0fd8004 	addi	r3,fp,-2560
 40003c0:	1009883a 	mov	r4,r2
 40003c4:	00814004 	movi	r2,1280
 40003c8:	100d883a 	mov	r6,r2
 40003cc:	200b883a 	mov	r5,r4
 40003d0:	1809883a 	mov	r4,r3
 40003d4:	40017700 	call	4001770 <memcpy>
float output_comp[SAMPLES];

int timer_comp = 0, timer_nios = 0;
 40003d8:	e03c3c15 	stw	zero,-3856(fp)
 40003dc:	e03c3d15 	stw	zero,-3852(fp)

// Disable interrupts
	   sample_disable_interrupt();
 40003e0:	0007883a 	mov	r3,zero
 40003e4:	00820274 	movhi	r2,2057
 40003e8:	10a80404 	addi	r2,r2,-24560
 40003ec:	10c00035 	stwio	r3,0(r2)
	   sample_clear_done_status();
 40003f0:	00c00044 	movi	r3,1
 40003f4:	00820274 	movhi	r2,2057
 40003f8:	10a80604 	addi	r2,r2,-24552
 40003fc:	10c00035 	stwio	r3,0(r2)

// Load samples in local memory (sample buffer)

  for (int i=0;i<SAMPLES;i++){
 4000400:	e03c3715 	stw	zero,-3876(fp)
 4000404:	00001106 	br	400044c <main+0xcc>
	  sample_memory_write((i<<2), *(alt_32 *) (&samples[i]));
 4000408:	e0bc3717 	ldw	r2,-3876(fp)
 400040c:	1085883a 	add	r2,r2,r2
 4000410:	1085883a 	add	r2,r2,r2
 4000414:	1007883a 	mov	r3,r2
 4000418:	00820274 	movhi	r2,2057
 400041c:	10a40004 	addi	r2,r2,-28672
 4000420:	1887883a 	add	r3,r3,r2
 4000424:	e13c4004 	addi	r4,fp,-3840
 4000428:	e0bc3717 	ldw	r2,-3876(fp)
 400042c:	1085883a 	add	r2,r2,r2
 4000430:	1085883a 	add	r2,r2,r2
 4000434:	2085883a 	add	r2,r4,r2
 4000438:	10800017 	ldw	r2,0(r2)
 400043c:	18800035 	stwio	r2,0(r3)
	   sample_disable_interrupt();
	   sample_clear_done_status();

// Load samples in local memory (sample buffer)

  for (int i=0;i<SAMPLES;i++){
 4000440:	e0bc3717 	ldw	r2,-3876(fp)
 4000444:	10800044 	addi	r2,r2,1
 4000448:	e0bc3715 	stw	r2,-3876(fp)
 400044c:	e0bc3717 	ldw	r2,-3876(fp)
 4000450:	10805010 	cmplti	r2,r2,320
 4000454:	103fec1e 	bne	r2,zero,4000408 <__alt_mem_onchip_ram+0xfbf7c408>
  }
// Run component

// Write to argument registers

  sample_arg_N(320);
 4000458:	00c05004 	movi	r3,320
 400045c:	00820274 	movhi	r2,2057
 4000460:	10a80804 	addi	r2,r2,-24544
 4000464:	10c00035 	stwio	r3,0(r2)

// Call sample buffer
  while (sample_busy()){}
 4000468:	0001883a 	nop
 400046c:	00820274 	movhi	r2,2057
 4000470:	10a80004 	addi	r2,r2,-24576
 4000474:	10800037 	ldwio	r2,0(r2)
 4000478:	1080004c 	andi	r2,r2,1
 400047c:	103ffb1e 	bne	r2,zero,400046c <__alt_mem_onchip_ram+0xfbf7c46c>
  TIMER_RESET();
 4000480:	00d00034 	movhi	r3,16384
 4000484:	00820274 	movhi	r2,2057
 4000488:	10a81504 	addi	r2,r2,-24492
 400048c:	10c00035 	stwio	r3,0(r2)
  TIMER_START();
 4000490:	00e00034 	movhi	r3,32768
 4000494:	00820274 	movhi	r2,2057
 4000498:	10a81504 	addi	r2,r2,-24492
 400049c:	10c00035 	stwio	r3,0(r2)
  sample_start();
 40004a0:	00c00044 	movi	r3,1
 40004a4:	00820274 	movhi	r2,2057
 40004a8:	10a80204 	addi	r2,r2,-24568
 40004ac:	10c00035 	stwio	r3,0(r2)
  while (!(sample_done())){}
 40004b0:	0001883a 	nop
 40004b4:	00820274 	movhi	r2,2057
 40004b8:	10a80604 	addi	r2,r2,-24552
 40004bc:	10800037 	ldwio	r2,0(r2)
 40004c0:	1080004c 	andi	r2,r2,1
 40004c4:	103ffb26 	beq	r2,zero,40004b4 <__alt_mem_onchip_ram+0xfbf7c4b4>
  timer_comp = TIMER_READ();
 40004c8:	00820274 	movhi	r2,2057
 40004cc:	10a81404 	addi	r2,r2,-24496
 40004d0:	10800037 	ldwio	r2,0(r2)
 40004d4:	e0bc3c15 	stw	r2,-3856(fp)

// Read Result from local memory (result buffer)
  for (int i=0;i<SAMPLES;i++){
 40004d8:	e03c3815 	stw	zero,-3872(fp)
 40004dc:	00002106 	br	4000564 <main+0x1e4>
	  *(alt_32 *) (&output_comp[i]) = result_memory_read(i<<2);
 40004e0:	e0fec004 	addi	r3,fp,-1280
 40004e4:	e0bc3817 	ldw	r2,-3872(fp)
 40004e8:	1085883a 	add	r2,r2,r2
 40004ec:	1085883a 	add	r2,r2,r2
 40004f0:	1887883a 	add	r3,r3,r2
 40004f4:	e0bc3817 	ldw	r2,-3872(fp)
 40004f8:	1085883a 	add	r2,r2,r2
 40004fc:	1085883a 	add	r2,r2,r2
 4000500:	1009883a 	mov	r4,r2
 4000504:	00820274 	movhi	r2,2057
 4000508:	10a60004 	addi	r2,r2,-26624
 400050c:	2085883a 	add	r2,r4,r2
 4000510:	10800037 	ldwio	r2,0(r2)
 4000514:	18800015 	stw	r2,0(r3)
	   printf ("output_comp: %f\n",output_comp[i]);
 4000518:	e0bc3817 	ldw	r2,-3872(fp)
 400051c:	1085883a 	add	r2,r2,r2
 4000520:	1085883a 	add	r2,r2,r2
 4000524:	e0fc3704 	addi	r3,fp,-3876
 4000528:	1885883a 	add	r2,r3,r2
 400052c:	10828904 	addi	r2,r2,2596
 4000530:	10c00017 	ldw	r3,0(r2)
 4000534:	1809883a 	mov	r4,r3
 4000538:	40015d40 	call	40015d4 <__extendsfdf2>
 400053c:	100d883a 	mov	r6,r2
 4000540:	180f883a 	mov	r7,r3
 4000544:	300b883a 	mov	r5,r6
 4000548:	380d883a 	mov	r6,r7
 400054c:	01010074 	movhi	r4,1025
 4000550:	21032f04 	addi	r4,r4,3260
 4000554:	40018e80 	call	40018e8 <printf>
  sample_start();
  while (!(sample_done())){}
  timer_comp = TIMER_READ();

// Read Result from local memory (result buffer)
  for (int i=0;i<SAMPLES;i++){
 4000558:	e0bc3817 	ldw	r2,-3872(fp)
 400055c:	10800044 	addi	r2,r2,1
 4000560:	e0bc3815 	stw	r2,-3872(fp)
 4000564:	e0bc3817 	ldw	r2,-3872(fp)
 4000568:	10805010 	cmplti	r2,r2,320
 400056c:	103fdc1e 	bne	r2,zero,40004e0 <__alt_mem_onchip_ram+0xfbf7c4e0>
	  *(alt_32 *) (&output_comp[i]) = result_memory_read(i<<2);
	   printf ("output_comp: %f\n",output_comp[i]);
  }

  // Call function for execution time comparison
     TIMER_RESET();
 4000570:	00d00034 	movhi	r3,16384
 4000574:	00820274 	movhi	r2,2057
 4000578:	10a81504 	addi	r2,r2,-24492
 400057c:	10c00035 	stwio	r3,0(r2)
     TIMER_START();
 4000580:	00e00034 	movhi	r3,32768
 4000584:	00820274 	movhi	r2,2057
 4000588:	10a81504 	addi	r2,r2,-24492
 400058c:	10c00035 	stwio	r3,0(r2)
     for (int i=0;i<SAMPLES;i++){
 4000590:	e03c3915 	stw	zero,-3868(fp)
 4000594:	00001406 	br	40005e8 <main+0x268>
        fir_filter_nios(samples[i], output_comp[i]);
 4000598:	e0bc3917 	ldw	r2,-3868(fp)
 400059c:	1085883a 	add	r2,r2,r2
 40005a0:	1085883a 	add	r2,r2,r2
 40005a4:	e13c3704 	addi	r4,fp,-3876
 40005a8:	2085883a 	add	r2,r4,r2
 40005ac:	10800904 	addi	r2,r2,36
 40005b0:	10c00017 	ldw	r3,0(r2)
 40005b4:	e0bc3917 	ldw	r2,-3868(fp)
 40005b8:	1085883a 	add	r2,r2,r2
 40005bc:	1085883a 	add	r2,r2,r2
 40005c0:	e13c3704 	addi	r4,fp,-3876
 40005c4:	2085883a 	add	r2,r4,r2
 40005c8:	10828904 	addi	r2,r2,2596
 40005cc:	11000017 	ldw	r4,0(r2)
 40005d0:	200b883a 	mov	r5,r4
 40005d4:	1809883a 	mov	r4,r3
 40005d8:	400026c0 	call	400026c <fir_filter_nios>
  }

  // Call function for execution time comparison
     TIMER_RESET();
     TIMER_START();
     for (int i=0;i<SAMPLES;i++){
 40005dc:	e0bc3917 	ldw	r2,-3868(fp)
 40005e0:	10800044 	addi	r2,r2,1
 40005e4:	e0bc3915 	stw	r2,-3868(fp)
 40005e8:	e0bc3917 	ldw	r2,-3868(fp)
 40005ec:	10805010 	cmplti	r2,r2,320
 40005f0:	103fe91e 	bne	r2,zero,4000598 <__alt_mem_onchip_ram+0xfbf7c598>
        fir_filter_nios(samples[i], output_comp[i]);
     }
     timer_nios = TIMER_READ();
 40005f4:	00820274 	movhi	r2,2057
 40005f8:	10a81404 	addi	r2,r2,-24496
 40005fc:	10800037 	ldwio	r2,0(r2)
 4000600:	e0bc3d15 	stw	r2,-3852(fp)

   // Print execution times
      printf("Execution time (comp): \t %d\n", timer_comp);
 4000604:	e17c3c17 	ldw	r5,-3856(fp)
 4000608:	01010074 	movhi	r4,1025
 400060c:	21033404 	addi	r4,r4,3280
 4000610:	40018e80 	call	40018e8 <printf>
      printf("Execution time (nios): \t %d\n", timer_nios);
 4000614:	e17c3d17 	ldw	r5,-3852(fp)
 4000618:	01010074 	movhi	r4,1025
 400061c:	21033c04 	addi	r4,r4,3312
 4000620:	40018e80 	call	40018e8 <printf>

  // Check results
     float diff, tot_diff = 0.0;
 4000624:	e03c3a15 	stw	zero,-3864(fp)
     for (int i=0;i < SAMPLES;i++){
 4000628:	e03c3b15 	stw	zero,-3860(fp)
 400062c:	00001b06 	br	400069c <main+0x31c>
  	   diff =  output_comp[i] - ref_result[i];
 4000630:	e0bc3b17 	ldw	r2,-3860(fp)
 4000634:	1085883a 	add	r2,r2,r2
 4000638:	1085883a 	add	r2,r2,r2
 400063c:	e0fc3704 	addi	r3,fp,-3876
 4000640:	1885883a 	add	r2,r3,r2
 4000644:	10828904 	addi	r2,r2,2596
 4000648:	10c00017 	ldw	r3,0(r2)
 400064c:	e0bc3b17 	ldw	r2,-3860(fp)
 4000650:	1085883a 	add	r2,r2,r2
 4000654:	1085883a 	add	r2,r2,r2
 4000658:	e13c3704 	addi	r4,fp,-3876
 400065c:	2085883a 	add	r2,r4,r2
 4000660:	10814904 	addi	r2,r2,1316
 4000664:	11000017 	ldw	r4,0(r2)
 4000668:	200b883a 	mov	r5,r4
 400066c:	1809883a 	mov	r4,r3
 4000670:	40010f00 	call	40010f0 <__subsf3>
 4000674:	1007883a 	mov	r3,r2
 4000678:	e0fc3e15 	stw	r3,-3848(fp)
  	   tot_diff += diff;
 400067c:	e17c3e17 	ldw	r5,-3848(fp)
 4000680:	e13c3a17 	ldw	r4,-3864(fp)
 4000684:	40007300 	call	4000730 <__addsf3>
 4000688:	1007883a 	mov	r3,r2
 400068c:	e0fc3a15 	stw	r3,-3864(fp)
      printf("Execution time (comp): \t %d\n", timer_comp);
      printf("Execution time (nios): \t %d\n", timer_nios);

  // Check results
     float diff, tot_diff = 0.0;
     for (int i=0;i < SAMPLES;i++){
 4000690:	e0bc3b17 	ldw	r2,-3860(fp)
 4000694:	10800044 	addi	r2,r2,1
 4000698:	e0bc3b15 	stw	r2,-3860(fp)
 400069c:	e0bc3b17 	ldw	r2,-3860(fp)
 40006a0:	10805010 	cmplti	r2,r2,320
 40006a4:	103fe21e 	bne	r2,zero,4000630 <__alt_mem_onchip_ram+0xfbf7c630>
  	   diff =  output_comp[i] - ref_result[i];
  	   tot_diff += diff;
     }

     printf("TOTAL ERROR =%2.18f\n",tot_diff);
 40006a8:	e13c3a17 	ldw	r4,-3864(fp)
 40006ac:	40015d40 	call	40015d4 <__extendsfdf2>
 40006b0:	100d883a 	mov	r6,r2
 40006b4:	180f883a 	mov	r7,r3
 40006b8:	300b883a 	mov	r5,r6
 40006bc:	380d883a 	mov	r6,r7
 40006c0:	01010074 	movhi	r4,1025
 40006c4:	21034404 	addi	r4,r4,3344
 40006c8:	40018e80 	call	40018e8 <printf>

     float error_margin = 1.0;
 40006cc:	008fe034 	movhi	r2,16256
 40006d0:	e0bc3f15 	stw	r2,-3844(fp)
     if (tot_diff < error_margin && tot_diff > -(error_margin))
 40006d4:	e17c3f17 	ldw	r5,-3844(fp)
 40006d8:	e13c3a17 	ldw	r4,-3864(fp)
 40006dc:	4000bf80 	call	4000bf8 <__lesf2>
 40006e0:	10000a0e 	bge	r2,zero,400070c <main+0x38c>
 40006e4:	e0bc3f17 	ldw	r2,-3844(fp)
 40006e8:	10a0003c 	xorhi	r2,r2,32768
 40006ec:	e17c3a17 	ldw	r5,-3864(fp)
 40006f0:	1009883a 	mov	r4,r2
 40006f4:	4000bf80 	call	4000bf8 <__lesf2>
 40006f8:	1000040e 	bge	r2,zero,400070c <main+0x38c>
  	   printf("\nTEST PASSED!\n");
 40006fc:	01010074 	movhi	r4,1025
 4000700:	21034a04 	addi	r4,r4,3368
 4000704:	40019e40 	call	40019e4 <puts>
 4000708:	00000306 	br	4000718 <main+0x398>

     else
  	   printf("\nTEST FAILED!\n");
 400070c:	01010074 	movhi	r4,1025
 4000710:	21034e04 	addi	r4,r4,3384
 4000714:	40019e40 	call	40019e4 <puts>

     return 0;
 4000718:	0005883a 	mov	r2,zero
  }
 400071c:	e037883a 	mov	sp,fp
 4000720:	dfc00117 	ldw	ra,4(sp)
 4000724:	df000017 	ldw	fp,0(sp)
 4000728:	dec00204 	addi	sp,sp,8
 400072c:	f800283a 	ret

04000730 <__addsf3>:
 4000730:	defffc04 	addi	sp,sp,-16
 4000734:	2004d7fa 	srli	r2,r4,31
 4000738:	280cd5fa 	srli	r6,r5,23
 400073c:	dc000015 	stw	r16,0(sp)
 4000740:	00c02034 	movhi	r3,128
 4000744:	2020d5fa 	srli	r16,r4,23
 4000748:	280ed7fa 	srli	r7,r5,31
 400074c:	18ffffc4 	addi	r3,r3,-1
 4000750:	dc400115 	stw	r17,4(sp)
 4000754:	1908703a 	and	r4,r3,r4
 4000758:	194a703a 	and	r5,r3,r5
 400075c:	dfc00315 	stw	ra,12(sp)
 4000760:	dc800215 	stw	r18,8(sp)
 4000764:	14403fcc 	andi	r17,r2,255
 4000768:	84003fcc 	andi	r16,r16,255
 400076c:	200890fa 	slli	r4,r4,3
 4000770:	31803fcc 	andi	r6,r6,255
 4000774:	280a90fa 	slli	r5,r5,3
 4000778:	89c05026 	beq	r17,r7,40008bc <__addsf3+0x18c>
 400077c:	8185c83a 	sub	r2,r16,r6
 4000780:	00807a0e 	bge	zero,r2,400096c <__addsf3+0x23c>
 4000784:	30001e1e 	bne	r6,zero,4000800 <__addsf3+0xd0>
 4000788:	28006d1e 	bne	r5,zero,4000940 <__addsf3+0x210>
 400078c:	208001cc 	andi	r2,r4,7
 4000790:	10000426 	beq	r2,zero,40007a4 <__addsf3+0x74>
 4000794:	208003cc 	andi	r2,r4,15
 4000798:	00c00104 	movi	r3,4
 400079c:	10c00126 	beq	r2,r3,40007a4 <__addsf3+0x74>
 40007a0:	20c9883a 	add	r4,r4,r3
 40007a4:	2081002c 	andhi	r2,r4,1024
 40007a8:	10003926 	beq	r2,zero,4000890 <__addsf3+0x160>
 40007ac:	84000044 	addi	r16,r16,1
 40007b0:	00803fc4 	movi	r2,255
 40007b4:	80807826 	beq	r16,r2,4000998 <__addsf3+0x268>
 40007b8:	200891ba 	slli	r4,r4,6
 40007bc:	8805883a 	mov	r2,r17
 40007c0:	2008d27a 	srli	r4,r4,9
 40007c4:	84003fcc 	andi	r16,r16,255
 40007c8:	800695fa 	slli	r3,r16,23
 40007cc:	10803fcc 	andi	r2,r2,255
 40007d0:	04002034 	movhi	r16,128
 40007d4:	843fffc4 	addi	r16,r16,-1
 40007d8:	100497fa 	slli	r2,r2,31
 40007dc:	2408703a 	and	r4,r4,r16
 40007e0:	20e0b03a 	or	r16,r4,r3
 40007e4:	8084b03a 	or	r2,r16,r2
 40007e8:	dfc00317 	ldw	ra,12(sp)
 40007ec:	dc800217 	ldw	r18,8(sp)
 40007f0:	dc400117 	ldw	r17,4(sp)
 40007f4:	dc000017 	ldw	r16,0(sp)
 40007f8:	dec00404 	addi	sp,sp,16
 40007fc:	f800283a 	ret
 4000800:	00c03fc4 	movi	r3,255
 4000804:	80ffe126 	beq	r16,r3,400078c <__alt_mem_onchip_ram+0xfbf7c78c>
 4000808:	29410034 	orhi	r5,r5,1024
 400080c:	00c006c4 	movi	r3,27
 4000810:	18807516 	blt	r3,r2,40009e8 <__addsf3+0x2b8>
 4000814:	00c00804 	movi	r3,32
 4000818:	1887c83a 	sub	r3,r3,r2
 400081c:	28c6983a 	sll	r3,r5,r3
 4000820:	288ad83a 	srl	r5,r5,r2
 4000824:	1804c03a 	cmpne	r2,r3,zero
 4000828:	288ab03a 	or	r5,r5,r2
 400082c:	2149c83a 	sub	r4,r4,r5
 4000830:	2081002c 	andhi	r2,r4,1024
 4000834:	10001426 	beq	r2,zero,4000888 <__addsf3+0x158>
 4000838:	04810034 	movhi	r18,1024
 400083c:	94bfffc4 	addi	r18,r18,-1
 4000840:	24a4703a 	and	r18,r4,r18
 4000844:	9009883a 	mov	r4,r18
 4000848:	40016e40 	call	40016e4 <__clzsi2>
 400084c:	10bffec4 	addi	r2,r2,-5
 4000850:	90a4983a 	sll	r18,r18,r2
 4000854:	14005416 	blt	r2,r16,40009a8 <__addsf3+0x278>
 4000858:	1405c83a 	sub	r2,r2,r16
 400085c:	11000044 	addi	r4,r2,1
 4000860:	00800804 	movi	r2,32
 4000864:	1105c83a 	sub	r2,r2,r4
 4000868:	9084983a 	sll	r2,r18,r2
 400086c:	9124d83a 	srl	r18,r18,r4
 4000870:	0021883a 	mov	r16,zero
 4000874:	1008c03a 	cmpne	r4,r2,zero
 4000878:	9108b03a 	or	r4,r18,r4
 400087c:	003fc306 	br	400078c <__alt_mem_onchip_ram+0xfbf7c78c>
 4000880:	1000db26 	beq	r2,zero,4000bf0 <__addsf3+0x4c0>
 4000884:	1009883a 	mov	r4,r2
 4000888:	208001cc 	andi	r2,r4,7
 400088c:	103fc11e 	bne	r2,zero,4000794 <__alt_mem_onchip_ram+0xfbf7c794>
 4000890:	2006d0fa 	srli	r3,r4,3
 4000894:	01003fc4 	movi	r4,255
 4000898:	8805883a 	mov	r2,r17
 400089c:	8100241e 	bne	r16,r4,4000930 <__addsf3+0x200>
 40008a0:	18006e26 	beq	r3,zero,4000a5c <__addsf3+0x32c>
 40008a4:	19001034 	orhi	r4,r3,64
 40008a8:	00c02034 	movhi	r3,128
 40008ac:	18ffffc4 	addi	r3,r3,-1
 40008b0:	043fffc4 	movi	r16,-1
 40008b4:	20c8703a 	and	r4,r4,r3
 40008b8:	003fc206 	br	40007c4 <__alt_mem_onchip_ram+0xfbf7c7c4>
 40008bc:	8187c83a 	sub	r3,r16,r6
 40008c0:	00c03e0e 	bge	zero,r3,40009bc <__addsf3+0x28c>
 40008c4:	30002326 	beq	r6,zero,4000954 <__addsf3+0x224>
 40008c8:	01803fc4 	movi	r6,255
 40008cc:	81bfaf26 	beq	r16,r6,400078c <__alt_mem_onchip_ram+0xfbf7c78c>
 40008d0:	29410034 	orhi	r5,r5,1024
 40008d4:	018006c4 	movi	r6,27
 40008d8:	30c07416 	blt	r6,r3,4000aac <__addsf3+0x37c>
 40008dc:	01800804 	movi	r6,32
 40008e0:	30cdc83a 	sub	r6,r6,r3
 40008e4:	298c983a 	sll	r6,r5,r6
 40008e8:	28cad83a 	srl	r5,r5,r3
 40008ec:	3006c03a 	cmpne	r3,r6,zero
 40008f0:	28cab03a 	or	r5,r5,r3
 40008f4:	2149883a 	add	r4,r4,r5
 40008f8:	20c1002c 	andhi	r3,r4,1024
 40008fc:	183fe226 	beq	r3,zero,4000888 <__alt_mem_onchip_ram+0xfbf7c888>
 4000900:	84000044 	addi	r16,r16,1
 4000904:	00c03fc4 	movi	r3,255
 4000908:	80c05426 	beq	r16,r3,4000a5c <__addsf3+0x32c>
 400090c:	00bf0034 	movhi	r2,64512
 4000910:	10bfffc4 	addi	r2,r2,-1
 4000914:	20c0004c 	andi	r3,r4,1
 4000918:	2088703a 	and	r4,r4,r2
 400091c:	2008d07a 	srli	r4,r4,1
 4000920:	20c8b03a 	or	r4,r4,r3
 4000924:	003f9906 	br	400078c <__alt_mem_onchip_ram+0xfbf7c78c>
 4000928:	0007883a 	mov	r3,zero
 400092c:	0005883a 	mov	r2,zero
 4000930:	01002034 	movhi	r4,128
 4000934:	213fffc4 	addi	r4,r4,-1
 4000938:	1908703a 	and	r4,r3,r4
 400093c:	003fa106 	br	40007c4 <__alt_mem_onchip_ram+0xfbf7c7c4>
 4000940:	10bfffc4 	addi	r2,r2,-1
 4000944:	103fb926 	beq	r2,zero,400082c <__alt_mem_onchip_ram+0xfbf7c82c>
 4000948:	00c03fc4 	movi	r3,255
 400094c:	80ffaf1e 	bne	r16,r3,400080c <__alt_mem_onchip_ram+0xfbf7c80c>
 4000950:	003f8e06 	br	400078c <__alt_mem_onchip_ram+0xfbf7c78c>
 4000954:	283f8d26 	beq	r5,zero,400078c <__alt_mem_onchip_ram+0xfbf7c78c>
 4000958:	18ffffc4 	addi	r3,r3,-1
 400095c:	183fe526 	beq	r3,zero,40008f4 <__alt_mem_onchip_ram+0xfbf7c8f4>
 4000960:	01803fc4 	movi	r6,255
 4000964:	81bfdb1e 	bne	r16,r6,40008d4 <__alt_mem_onchip_ram+0xfbf7c8d4>
 4000968:	003f8806 	br	400078c <__alt_mem_onchip_ram+0xfbf7c78c>
 400096c:	1000201e 	bne	r2,zero,40009f0 <__addsf3+0x2c0>
 4000970:	80800044 	addi	r2,r16,1
 4000974:	10803fcc 	andi	r2,r2,255
 4000978:	01800044 	movi	r6,1
 400097c:	3080450e 	bge	r6,r2,4000a94 <__addsf3+0x364>
 4000980:	2165c83a 	sub	r18,r4,r5
 4000984:	90c1002c 	andhi	r3,r18,1024
 4000988:	18002b26 	beq	r3,zero,4000a38 <__addsf3+0x308>
 400098c:	2925c83a 	sub	r18,r5,r4
 4000990:	3823883a 	mov	r17,r7
 4000994:	003fab06 	br	4000844 <__alt_mem_onchip_ram+0xfbf7c844>
 4000998:	8805883a 	mov	r2,r17
 400099c:	043fffc4 	movi	r16,-1
 40009a0:	0009883a 	mov	r4,zero
 40009a4:	003f8706 	br	40007c4 <__alt_mem_onchip_ram+0xfbf7c7c4>
 40009a8:	013f0034 	movhi	r4,64512
 40009ac:	213fffc4 	addi	r4,r4,-1
 40009b0:	80a1c83a 	sub	r16,r16,r2
 40009b4:	9108703a 	and	r4,r18,r4
 40009b8:	003f7406 	br	400078c <__alt_mem_onchip_ram+0xfbf7c78c>
 40009bc:	1800411e 	bne	r3,zero,4000ac4 <__addsf3+0x394>
 40009c0:	80c00044 	addi	r3,r16,1
 40009c4:	19c03fcc 	andi	r7,r3,255
 40009c8:	01800044 	movi	r6,1
 40009cc:	31c0260e 	bge	r6,r7,4000a68 <__addsf3+0x338>
 40009d0:	01803fc4 	movi	r6,255
 40009d4:	19802126 	beq	r3,r6,4000a5c <__addsf3+0x32c>
 40009d8:	2149883a 	add	r4,r4,r5
 40009dc:	2008d07a 	srli	r4,r4,1
 40009e0:	1821883a 	mov	r16,r3
 40009e4:	003f6906 	br	400078c <__alt_mem_onchip_ram+0xfbf7c78c>
 40009e8:	01400044 	movi	r5,1
 40009ec:	003f8f06 	br	400082c <__alt_mem_onchip_ram+0xfbf7c82c>
 40009f0:	8000151e 	bne	r16,zero,4000a48 <__addsf3+0x318>
 40009f4:	20002f26 	beq	r4,zero,4000ab4 <__addsf3+0x384>
 40009f8:	0084303a 	nor	r2,zero,r2
 40009fc:	10000a26 	beq	r2,zero,4000a28 <__addsf3+0x2f8>
 4000a00:	00c03fc4 	movi	r3,255
 4000a04:	30c02b26 	beq	r6,r3,4000ab4 <__addsf3+0x384>
 4000a08:	00c006c4 	movi	r3,27
 4000a0c:	18806d16 	blt	r3,r2,4000bc4 <__addsf3+0x494>
 4000a10:	00c00804 	movi	r3,32
 4000a14:	1887c83a 	sub	r3,r3,r2
 4000a18:	20c6983a 	sll	r3,r4,r3
 4000a1c:	2084d83a 	srl	r2,r4,r2
 4000a20:	1808c03a 	cmpne	r4,r3,zero
 4000a24:	1108b03a 	or	r4,r2,r4
 4000a28:	2909c83a 	sub	r4,r5,r4
 4000a2c:	3021883a 	mov	r16,r6
 4000a30:	3823883a 	mov	r17,r7
 4000a34:	003f7e06 	br	4000830 <__alt_mem_onchip_ram+0xfbf7c830>
 4000a38:	903f821e 	bne	r18,zero,4000844 <__alt_mem_onchip_ram+0xfbf7c844>
 4000a3c:	0005883a 	mov	r2,zero
 4000a40:	0021883a 	mov	r16,zero
 4000a44:	003fba06 	br	4000930 <__alt_mem_onchip_ram+0xfbf7c930>
 4000a48:	00c03fc4 	movi	r3,255
 4000a4c:	30c01926 	beq	r6,r3,4000ab4 <__addsf3+0x384>
 4000a50:	0085c83a 	sub	r2,zero,r2
 4000a54:	21010034 	orhi	r4,r4,1024
 4000a58:	003feb06 	br	4000a08 <__alt_mem_onchip_ram+0xfbf7ca08>
 4000a5c:	043fffc4 	movi	r16,-1
 4000a60:	0009883a 	mov	r4,zero
 4000a64:	003f5706 	br	40007c4 <__alt_mem_onchip_ram+0xfbf7c7c4>
 4000a68:	80004a1e 	bne	r16,zero,4000b94 <__addsf3+0x464>
 4000a6c:	20005926 	beq	r4,zero,4000bd4 <__addsf3+0x4a4>
 4000a70:	283f4626 	beq	r5,zero,400078c <__alt_mem_onchip_ram+0xfbf7c78c>
 4000a74:	2149883a 	add	r4,r4,r5
 4000a78:	2081002c 	andhi	r2,r4,1024
 4000a7c:	103f8226 	beq	r2,zero,4000888 <__alt_mem_onchip_ram+0xfbf7c888>
 4000a80:	00bf0034 	movhi	r2,64512
 4000a84:	10bfffc4 	addi	r2,r2,-1
 4000a88:	3021883a 	mov	r16,r6
 4000a8c:	2088703a 	and	r4,r4,r2
 4000a90:	003f3e06 	br	400078c <__alt_mem_onchip_ram+0xfbf7c78c>
 4000a94:	8000121e 	bne	r16,zero,4000ae0 <__addsf3+0x3b0>
 4000a98:	2000261e 	bne	r4,zero,4000b34 <__addsf3+0x404>
 4000a9c:	283fa226 	beq	r5,zero,4000928 <__alt_mem_onchip_ram+0xfbf7c928>
 4000aa0:	2809883a 	mov	r4,r5
 4000aa4:	3823883a 	mov	r17,r7
 4000aa8:	003f3806 	br	400078c <__alt_mem_onchip_ram+0xfbf7c78c>
 4000aac:	01400044 	movi	r5,1
 4000ab0:	003f9006 	br	40008f4 <__alt_mem_onchip_ram+0xfbf7c8f4>
 4000ab4:	2809883a 	mov	r4,r5
 4000ab8:	3021883a 	mov	r16,r6
 4000abc:	3823883a 	mov	r17,r7
 4000ac0:	003f3206 	br	400078c <__alt_mem_onchip_ram+0xfbf7c78c>
 4000ac4:	80000c1e 	bne	r16,zero,4000af8 <__addsf3+0x3c8>
 4000ac8:	20002f26 	beq	r4,zero,4000b88 <__addsf3+0x458>
 4000acc:	00c6303a 	nor	r3,zero,r3
 4000ad0:	18002b1e 	bne	r3,zero,4000b80 <__addsf3+0x450>
 4000ad4:	2149883a 	add	r4,r4,r5
 4000ad8:	3021883a 	mov	r16,r6
 4000adc:	003f8606 	br	40008f8 <__alt_mem_onchip_ram+0xfbf7c8f8>
 4000ae0:	20001b1e 	bne	r4,zero,4000b50 <__addsf3+0x420>
 4000ae4:	28003926 	beq	r5,zero,4000bcc <__addsf3+0x49c>
 4000ae8:	2809883a 	mov	r4,r5
 4000aec:	3823883a 	mov	r17,r7
 4000af0:	04003fc4 	movi	r16,255
 4000af4:	003f2506 	br	400078c <__alt_mem_onchip_ram+0xfbf7c78c>
 4000af8:	01c03fc4 	movi	r7,255
 4000afc:	31c02226 	beq	r6,r7,4000b88 <__addsf3+0x458>
 4000b00:	00c7c83a 	sub	r3,zero,r3
 4000b04:	21010034 	orhi	r4,r4,1024
 4000b08:	01c006c4 	movi	r7,27
 4000b0c:	38c03616 	blt	r7,r3,4000be8 <__addsf3+0x4b8>
 4000b10:	01c00804 	movi	r7,32
 4000b14:	38cfc83a 	sub	r7,r7,r3
 4000b18:	21ce983a 	sll	r7,r4,r7
 4000b1c:	20c6d83a 	srl	r3,r4,r3
 4000b20:	3808c03a 	cmpne	r4,r7,zero
 4000b24:	1906b03a 	or	r3,r3,r4
 4000b28:	1949883a 	add	r4,r3,r5
 4000b2c:	3021883a 	mov	r16,r6
 4000b30:	003f7106 	br	40008f8 <__alt_mem_onchip_ram+0xfbf7c8f8>
 4000b34:	283f1526 	beq	r5,zero,400078c <__alt_mem_onchip_ram+0xfbf7c78c>
 4000b38:	2145c83a 	sub	r2,r4,r5
 4000b3c:	10c1002c 	andhi	r3,r2,1024
 4000b40:	183f4f26 	beq	r3,zero,4000880 <__alt_mem_onchip_ram+0xfbf7c880>
 4000b44:	2909c83a 	sub	r4,r5,r4
 4000b48:	3823883a 	mov	r17,r7
 4000b4c:	003f0f06 	br	400078c <__alt_mem_onchip_ram+0xfbf7c78c>
 4000b50:	28001a26 	beq	r5,zero,4000bbc <__addsf3+0x48c>
 4000b54:	2008d0fa 	srli	r4,r4,3
 4000b58:	2080102c 	andhi	r2,r4,64
 4000b5c:	10000526 	beq	r2,zero,4000b74 <__addsf3+0x444>
 4000b60:	280ad0fa 	srli	r5,r5,3
 4000b64:	2880102c 	andhi	r2,r5,64
 4000b68:	1000021e 	bne	r2,zero,4000b74 <__addsf3+0x444>
 4000b6c:	2809883a 	mov	r4,r5
 4000b70:	3823883a 	mov	r17,r7
 4000b74:	200890fa 	slli	r4,r4,3
 4000b78:	04003fc4 	movi	r16,255
 4000b7c:	003f0306 	br	400078c <__alt_mem_onchip_ram+0xfbf7c78c>
 4000b80:	01c03fc4 	movi	r7,255
 4000b84:	31ffe01e 	bne	r6,r7,4000b08 <__alt_mem_onchip_ram+0xfbf7cb08>
 4000b88:	2809883a 	mov	r4,r5
 4000b8c:	3021883a 	mov	r16,r6
 4000b90:	003efe06 	br	400078c <__alt_mem_onchip_ram+0xfbf7c78c>
 4000b94:	20001126 	beq	r4,zero,4000bdc <__addsf3+0x4ac>
 4000b98:	28000826 	beq	r5,zero,4000bbc <__addsf3+0x48c>
 4000b9c:	2008d0fa 	srli	r4,r4,3
 4000ba0:	2080102c 	andhi	r2,r4,64
 4000ba4:	103ff326 	beq	r2,zero,4000b74 <__alt_mem_onchip_ram+0xfbf7cb74>
 4000ba8:	280ad0fa 	srli	r5,r5,3
 4000bac:	2880102c 	andhi	r2,r5,64
 4000bb0:	103ff01e 	bne	r2,zero,4000b74 <__alt_mem_onchip_ram+0xfbf7cb74>
 4000bb4:	2809883a 	mov	r4,r5
 4000bb8:	003fee06 	br	4000b74 <__alt_mem_onchip_ram+0xfbf7cb74>
 4000bbc:	04003fc4 	movi	r16,255
 4000bc0:	003ef206 	br	400078c <__alt_mem_onchip_ram+0xfbf7c78c>
 4000bc4:	01000044 	movi	r4,1
 4000bc8:	003f9706 	br	4000a28 <__alt_mem_onchip_ram+0xfbf7ca28>
 4000bcc:	0005883a 	mov	r2,zero
 4000bd0:	003f3406 	br	40008a4 <__alt_mem_onchip_ram+0xfbf7c8a4>
 4000bd4:	2809883a 	mov	r4,r5
 4000bd8:	003eec06 	br	400078c <__alt_mem_onchip_ram+0xfbf7c78c>
 4000bdc:	2809883a 	mov	r4,r5
 4000be0:	04003fc4 	movi	r16,255
 4000be4:	003ee906 	br	400078c <__alt_mem_onchip_ram+0xfbf7c78c>
 4000be8:	00c00044 	movi	r3,1
 4000bec:	003fce06 	br	4000b28 <__alt_mem_onchip_ram+0xfbf7cb28>
 4000bf0:	0005883a 	mov	r2,zero
 4000bf4:	003f4e06 	br	4000930 <__alt_mem_onchip_ram+0xfbf7c930>

04000bf8 <__lesf2>:
 4000bf8:	2004d5fa 	srli	r2,r4,23
 4000bfc:	280cd5fa 	srli	r6,r5,23
 4000c00:	00c02034 	movhi	r3,128
 4000c04:	18ffffc4 	addi	r3,r3,-1
 4000c08:	10803fcc 	andi	r2,r2,255
 4000c0c:	01c03fc4 	movi	r7,255
 4000c10:	1910703a 	and	r8,r3,r4
 4000c14:	31803fcc 	andi	r6,r6,255
 4000c18:	1946703a 	and	r3,r3,r5
 4000c1c:	2008d7fa 	srli	r4,r4,31
 4000c20:	280ad7fa 	srli	r5,r5,31
 4000c24:	11c01b26 	beq	r2,r7,4000c94 <__lesf2+0x9c>
 4000c28:	01c03fc4 	movi	r7,255
 4000c2c:	31c01126 	beq	r6,r7,4000c74 <__lesf2+0x7c>
 4000c30:	1000071e 	bne	r2,zero,4000c50 <__lesf2+0x58>
 4000c34:	400f003a 	cmpeq	r7,r8,zero
 4000c38:	21003fcc 	andi	r4,r4,255
 4000c3c:	3000081e 	bne	r6,zero,4000c60 <__lesf2+0x68>
 4000c40:	1800071e 	bne	r3,zero,4000c60 <__lesf2+0x68>
 4000c44:	0005883a 	mov	r2,zero
 4000c48:	40000f1e 	bne	r8,zero,4000c88 <__lesf2+0x90>
 4000c4c:	f800283a 	ret
 4000c50:	21003fcc 	andi	r4,r4,255
 4000c54:	30000a1e 	bne	r6,zero,4000c80 <__lesf2+0x88>
 4000c58:	18000b26 	beq	r3,zero,4000c88 <__lesf2+0x90>
 4000c5c:	000f883a 	mov	r7,zero
 4000c60:	29403fcc 	andi	r5,r5,255
 4000c64:	38000726 	beq	r7,zero,4000c84 <__lesf2+0x8c>
 4000c68:	28000826 	beq	r5,zero,4000c8c <__lesf2+0x94>
 4000c6c:	00800044 	movi	r2,1
 4000c70:	f800283a 	ret
 4000c74:	183fee26 	beq	r3,zero,4000c30 <__alt_mem_onchip_ram+0xfbf7cc30>
 4000c78:	00800084 	movi	r2,2
 4000c7c:	f800283a 	ret
 4000c80:	29403fcc 	andi	r5,r5,255
 4000c84:	21400626 	beq	r4,r5,4000ca0 <__lesf2+0xa8>
 4000c88:	203ff826 	beq	r4,zero,4000c6c <__alt_mem_onchip_ram+0xfbf7cc6c>
 4000c8c:	00bfffc4 	movi	r2,-1
 4000c90:	f800283a 	ret
 4000c94:	403fe426 	beq	r8,zero,4000c28 <__alt_mem_onchip_ram+0xfbf7cc28>
 4000c98:	00800084 	movi	r2,2
 4000c9c:	f800283a 	ret
 4000ca0:	30bff916 	blt	r6,r2,4000c88 <__alt_mem_onchip_ram+0xfbf7cc88>
 4000ca4:	11800216 	blt	r2,r6,4000cb0 <__lesf2+0xb8>
 4000ca8:	1a3ff736 	bltu	r3,r8,4000c88 <__alt_mem_onchip_ram+0xfbf7cc88>
 4000cac:	40c0022e 	bgeu	r8,r3,4000cb8 <__lesf2+0xc0>
 4000cb0:	203fee1e 	bne	r4,zero,4000c6c <__alt_mem_onchip_ram+0xfbf7cc6c>
 4000cb4:	003ff506 	br	4000c8c <__alt_mem_onchip_ram+0xfbf7cc8c>
 4000cb8:	0005883a 	mov	r2,zero
 4000cbc:	f800283a 	ret

04000cc0 <__mulsf3>:
 4000cc0:	defff504 	addi	sp,sp,-44
 4000cc4:	dc000115 	stw	r16,4(sp)
 4000cc8:	2020d5fa 	srli	r16,r4,23
 4000ccc:	dd400615 	stw	r21,24(sp)
 4000cd0:	202ad7fa 	srli	r21,r4,31
 4000cd4:	dc800315 	stw	r18,12(sp)
 4000cd8:	04802034 	movhi	r18,128
 4000cdc:	df000915 	stw	fp,36(sp)
 4000ce0:	dd000515 	stw	r20,20(sp)
 4000ce4:	94bfffc4 	addi	r18,r18,-1
 4000ce8:	dfc00a15 	stw	ra,40(sp)
 4000cec:	ddc00815 	stw	r23,32(sp)
 4000cf0:	dd800715 	stw	r22,28(sp)
 4000cf4:	dcc00415 	stw	r19,16(sp)
 4000cf8:	dc400215 	stw	r17,8(sp)
 4000cfc:	84003fcc 	andi	r16,r16,255
 4000d00:	9124703a 	and	r18,r18,r4
 4000d04:	a829883a 	mov	r20,r21
 4000d08:	af003fcc 	andi	fp,r21,255
 4000d0c:	80005426 	beq	r16,zero,4000e60 <__mulsf3+0x1a0>
 4000d10:	00803fc4 	movi	r2,255
 4000d14:	80802f26 	beq	r16,r2,4000dd4 <__mulsf3+0x114>
 4000d18:	91002034 	orhi	r4,r18,128
 4000d1c:	202490fa 	slli	r18,r4,3
 4000d20:	843fe044 	addi	r16,r16,-127
 4000d24:	0023883a 	mov	r17,zero
 4000d28:	002f883a 	mov	r23,zero
 4000d2c:	2804d5fa 	srli	r2,r5,23
 4000d30:	282cd7fa 	srli	r22,r5,31
 4000d34:	01002034 	movhi	r4,128
 4000d38:	213fffc4 	addi	r4,r4,-1
 4000d3c:	10803fcc 	andi	r2,r2,255
 4000d40:	2166703a 	and	r19,r4,r5
 4000d44:	b1803fcc 	andi	r6,r22,255
 4000d48:	10004c26 	beq	r2,zero,4000e7c <__mulsf3+0x1bc>
 4000d4c:	00c03fc4 	movi	r3,255
 4000d50:	10c04726 	beq	r2,r3,4000e70 <__mulsf3+0x1b0>
 4000d54:	99002034 	orhi	r4,r19,128
 4000d58:	202690fa 	slli	r19,r4,3
 4000d5c:	10bfe044 	addi	r2,r2,-127
 4000d60:	0007883a 	mov	r3,zero
 4000d64:	80a1883a 	add	r16,r16,r2
 4000d68:	010003c4 	movi	r4,15
 4000d6c:	1c44b03a 	or	r2,r3,r17
 4000d70:	b56af03a 	xor	r21,r22,r21
 4000d74:	81c00044 	addi	r7,r16,1
 4000d78:	20806b36 	bltu	r4,r2,4000f28 <__mulsf3+0x268>
 4000d7c:	100490ba 	slli	r2,r2,2
 4000d80:	01010034 	movhi	r4,1024
 4000d84:	21036504 	addi	r4,r4,3476
 4000d88:	1105883a 	add	r2,r2,r4
 4000d8c:	10800017 	ldw	r2,0(r2)
 4000d90:	1000683a 	jmp	r2
 4000d94:	04000f28 	cmpgeui	r16,zero,60
 4000d98:	04000de8 	cmpgeui	r16,zero,55
 4000d9c:	04000de8 	cmpgeui	r16,zero,55
 4000da0:	04000de4 	muli	r16,zero,55
 4000da4:	04000f0c 	andi	r16,zero,60
 4000da8:	04000f0c 	andi	r16,zero,60
 4000dac:	04000ef8 	rdprs	r16,zero,59
 4000db0:	04000de4 	muli	r16,zero,55
 4000db4:	04000f0c 	andi	r16,zero,60
 4000db8:	04000ef8 	rdprs	r16,zero,59
 4000dbc:	04000f0c 	andi	r16,zero,60
 4000dc0:	04000de4 	muli	r16,zero,55
 4000dc4:	04000f18 	cmpnei	r16,zero,60
 4000dc8:	04000f18 	cmpnei	r16,zero,60
 4000dcc:	04000f18 	cmpnei	r16,zero,60
 4000dd0:	04001028 	cmpgeui	r16,zero,64
 4000dd4:	90003b1e 	bne	r18,zero,4000ec4 <__mulsf3+0x204>
 4000dd8:	04400204 	movi	r17,8
 4000ddc:	05c00084 	movi	r23,2
 4000de0:	003fd206 	br	4000d2c <__alt_mem_onchip_ram+0xfbf7cd2c>
 4000de4:	302b883a 	mov	r21,r6
 4000de8:	00800084 	movi	r2,2
 4000dec:	18802626 	beq	r3,r2,4000e88 <__mulsf3+0x1c8>
 4000df0:	008000c4 	movi	r2,3
 4000df4:	1880b826 	beq	r3,r2,40010d8 <__mulsf3+0x418>
 4000df8:	00800044 	movi	r2,1
 4000dfc:	1880af1e 	bne	r3,r2,40010bc <__mulsf3+0x3fc>
 4000e00:	a829883a 	mov	r20,r21
 4000e04:	0007883a 	mov	r3,zero
 4000e08:	0009883a 	mov	r4,zero
 4000e0c:	18803fcc 	andi	r2,r3,255
 4000e10:	100695fa 	slli	r3,r2,23
 4000e14:	a0803fcc 	andi	r2,r20,255
 4000e18:	100a97fa 	slli	r5,r2,31
 4000e1c:	00802034 	movhi	r2,128
 4000e20:	10bfffc4 	addi	r2,r2,-1
 4000e24:	2084703a 	and	r2,r4,r2
 4000e28:	10c4b03a 	or	r2,r2,r3
 4000e2c:	1144b03a 	or	r2,r2,r5
 4000e30:	dfc00a17 	ldw	ra,40(sp)
 4000e34:	df000917 	ldw	fp,36(sp)
 4000e38:	ddc00817 	ldw	r23,32(sp)
 4000e3c:	dd800717 	ldw	r22,28(sp)
 4000e40:	dd400617 	ldw	r21,24(sp)
 4000e44:	dd000517 	ldw	r20,20(sp)
 4000e48:	dcc00417 	ldw	r19,16(sp)
 4000e4c:	dc800317 	ldw	r18,12(sp)
 4000e50:	dc400217 	ldw	r17,8(sp)
 4000e54:	dc000117 	ldw	r16,4(sp)
 4000e58:	dec00b04 	addi	sp,sp,44
 4000e5c:	f800283a 	ret
 4000e60:	90000d1e 	bne	r18,zero,4000e98 <__mulsf3+0x1d8>
 4000e64:	04400104 	movi	r17,4
 4000e68:	05c00044 	movi	r23,1
 4000e6c:	003faf06 	br	4000d2c <__alt_mem_onchip_ram+0xfbf7cd2c>
 4000e70:	9806c03a 	cmpne	r3,r19,zero
 4000e74:	18c00084 	addi	r3,r3,2
 4000e78:	003fba06 	br	4000d64 <__alt_mem_onchip_ram+0xfbf7cd64>
 4000e7c:	9800141e 	bne	r19,zero,4000ed0 <__mulsf3+0x210>
 4000e80:	00c00044 	movi	r3,1
 4000e84:	003fb706 	br	4000d64 <__alt_mem_onchip_ram+0xfbf7cd64>
 4000e88:	a829883a 	mov	r20,r21
 4000e8c:	00ffffc4 	movi	r3,-1
 4000e90:	0009883a 	mov	r4,zero
 4000e94:	003fdd06 	br	4000e0c <__alt_mem_onchip_ram+0xfbf7ce0c>
 4000e98:	9009883a 	mov	r4,r18
 4000e9c:	d9400015 	stw	r5,0(sp)
 4000ea0:	40016e40 	call	40016e4 <__clzsi2>
 4000ea4:	10fffec4 	addi	r3,r2,-5
 4000ea8:	10801d84 	addi	r2,r2,118
 4000eac:	90e4983a 	sll	r18,r18,r3
 4000eb0:	00a1c83a 	sub	r16,zero,r2
 4000eb4:	0023883a 	mov	r17,zero
 4000eb8:	002f883a 	mov	r23,zero
 4000ebc:	d9400017 	ldw	r5,0(sp)
 4000ec0:	003f9a06 	br	4000d2c <__alt_mem_onchip_ram+0xfbf7cd2c>
 4000ec4:	04400304 	movi	r17,12
 4000ec8:	05c000c4 	movi	r23,3
 4000ecc:	003f9706 	br	4000d2c <__alt_mem_onchip_ram+0xfbf7cd2c>
 4000ed0:	9809883a 	mov	r4,r19
 4000ed4:	d9800015 	stw	r6,0(sp)
 4000ed8:	40016e40 	call	40016e4 <__clzsi2>
 4000edc:	10fffec4 	addi	r3,r2,-5
 4000ee0:	10801d84 	addi	r2,r2,118
 4000ee4:	98e6983a 	sll	r19,r19,r3
 4000ee8:	0085c83a 	sub	r2,zero,r2
 4000eec:	0007883a 	mov	r3,zero
 4000ef0:	d9800017 	ldw	r6,0(sp)
 4000ef4:	003f9b06 	br	4000d64 <__alt_mem_onchip_ram+0xfbf7cd64>
 4000ef8:	01002034 	movhi	r4,128
 4000efc:	0029883a 	mov	r20,zero
 4000f00:	213fffc4 	addi	r4,r4,-1
 4000f04:	00ffffc4 	movi	r3,-1
 4000f08:	003fc006 	br	4000e0c <__alt_mem_onchip_ram+0xfbf7ce0c>
 4000f0c:	9027883a 	mov	r19,r18
 4000f10:	b807883a 	mov	r3,r23
 4000f14:	003fb406 	br	4000de8 <__alt_mem_onchip_ram+0xfbf7cde8>
 4000f18:	9027883a 	mov	r19,r18
 4000f1c:	e02b883a 	mov	r21,fp
 4000f20:	b807883a 	mov	r3,r23
 4000f24:	003fb006 	br	4000de8 <__alt_mem_onchip_ram+0xfbf7cde8>
 4000f28:	9028d43a 	srli	r20,r18,16
 4000f2c:	982cd43a 	srli	r22,r19,16
 4000f30:	94bfffcc 	andi	r18,r18,65535
 4000f34:	9cffffcc 	andi	r19,r19,65535
 4000f38:	980b883a 	mov	r5,r19
 4000f3c:	9009883a 	mov	r4,r18
 4000f40:	d9c00015 	stw	r7,0(sp)
 4000f44:	40017480 	call	4001748 <__mulsi3>
 4000f48:	a00b883a 	mov	r5,r20
 4000f4c:	9809883a 	mov	r4,r19
 4000f50:	1023883a 	mov	r17,r2
 4000f54:	40017480 	call	4001748 <__mulsi3>
 4000f58:	a009883a 	mov	r4,r20
 4000f5c:	b00b883a 	mov	r5,r22
 4000f60:	1027883a 	mov	r19,r2
 4000f64:	40017480 	call	4001748 <__mulsi3>
 4000f68:	b00b883a 	mov	r5,r22
 4000f6c:	9009883a 	mov	r4,r18
 4000f70:	1029883a 	mov	r20,r2
 4000f74:	40017480 	call	4001748 <__mulsi3>
 4000f78:	8806d43a 	srli	r3,r17,16
 4000f7c:	14c5883a 	add	r2,r2,r19
 4000f80:	d9c00017 	ldw	r7,0(sp)
 4000f84:	1885883a 	add	r2,r3,r2
 4000f88:	14c0022e 	bgeu	r2,r19,4000f94 <__mulsf3+0x2d4>
 4000f8c:	00c00074 	movhi	r3,1
 4000f90:	a0e9883a 	add	r20,r20,r3
 4000f94:	1026943a 	slli	r19,r2,16
 4000f98:	8c7fffcc 	andi	r17,r17,65535
 4000f9c:	1004d43a 	srli	r2,r2,16
 4000fa0:	9c63883a 	add	r17,r19,r17
 4000fa4:	882691ba 	slli	r19,r17,6
 4000fa8:	1505883a 	add	r2,r2,r20
 4000fac:	8822d6ba 	srli	r17,r17,26
 4000fb0:	100891ba 	slli	r4,r2,6
 4000fb4:	9826c03a 	cmpne	r19,r19,zero
 4000fb8:	9c62b03a 	or	r17,r19,r17
 4000fbc:	8926b03a 	or	r19,r17,r4
 4000fc0:	9882002c 	andhi	r2,r19,2048
 4000fc4:	10000426 	beq	r2,zero,4000fd8 <__mulsf3+0x318>
 4000fc8:	9804d07a 	srli	r2,r19,1
 4000fcc:	9900004c 	andi	r4,r19,1
 4000fd0:	3821883a 	mov	r16,r7
 4000fd4:	1126b03a 	or	r19,r2,r4
 4000fd8:	80c01fc4 	addi	r3,r16,127
 4000fdc:	00c0210e 	bge	zero,r3,4001064 <__mulsf3+0x3a4>
 4000fe0:	988001cc 	andi	r2,r19,7
 4000fe4:	10000426 	beq	r2,zero,4000ff8 <__mulsf3+0x338>
 4000fe8:	988003cc 	andi	r2,r19,15
 4000fec:	01000104 	movi	r4,4
 4000ff0:	11000126 	beq	r2,r4,4000ff8 <__mulsf3+0x338>
 4000ff4:	9927883a 	add	r19,r19,r4
 4000ff8:	9882002c 	andhi	r2,r19,2048
 4000ffc:	10000426 	beq	r2,zero,4001010 <__mulsf3+0x350>
 4001000:	00be0034 	movhi	r2,63488
 4001004:	10bfffc4 	addi	r2,r2,-1
 4001008:	80c02004 	addi	r3,r16,128
 400100c:	98a6703a 	and	r19,r19,r2
 4001010:	00803f84 	movi	r2,254
 4001014:	10ff9c16 	blt	r2,r3,4000e88 <__alt_mem_onchip_ram+0xfbf7ce88>
 4001018:	980891ba 	slli	r4,r19,6
 400101c:	a829883a 	mov	r20,r21
 4001020:	2008d27a 	srli	r4,r4,9
 4001024:	003f7906 	br	4000e0c <__alt_mem_onchip_ram+0xfbf7ce0c>
 4001028:	9080102c 	andhi	r2,r18,64
 400102c:	10000826 	beq	r2,zero,4001050 <__mulsf3+0x390>
 4001030:	9880102c 	andhi	r2,r19,64
 4001034:	1000061e 	bne	r2,zero,4001050 <__mulsf3+0x390>
 4001038:	00802034 	movhi	r2,128
 400103c:	99001034 	orhi	r4,r19,64
 4001040:	10bfffc4 	addi	r2,r2,-1
 4001044:	b029883a 	mov	r20,r22
 4001048:	2088703a 	and	r4,r4,r2
 400104c:	003fad06 	br	4000f04 <__alt_mem_onchip_ram+0xfbf7cf04>
 4001050:	00802034 	movhi	r2,128
 4001054:	91001034 	orhi	r4,r18,64
 4001058:	10bfffc4 	addi	r2,r2,-1
 400105c:	2088703a 	and	r4,r4,r2
 4001060:	003fa806 	br	4000f04 <__alt_mem_onchip_ram+0xfbf7cf04>
 4001064:	00800044 	movi	r2,1
 4001068:	10c7c83a 	sub	r3,r2,r3
 400106c:	008006c4 	movi	r2,27
 4001070:	10ff6316 	blt	r2,r3,4000e00 <__alt_mem_onchip_ram+0xfbf7ce00>
 4001074:	00800804 	movi	r2,32
 4001078:	10c5c83a 	sub	r2,r2,r3
 400107c:	9884983a 	sll	r2,r19,r2
 4001080:	98c6d83a 	srl	r3,r19,r3
 4001084:	1004c03a 	cmpne	r2,r2,zero
 4001088:	1884b03a 	or	r2,r3,r2
 400108c:	10c001cc 	andi	r3,r2,7
 4001090:	18000426 	beq	r3,zero,40010a4 <__mulsf3+0x3e4>
 4001094:	10c003cc 	andi	r3,r2,15
 4001098:	01000104 	movi	r4,4
 400109c:	19000126 	beq	r3,r4,40010a4 <__mulsf3+0x3e4>
 40010a0:	1105883a 	add	r2,r2,r4
 40010a4:	10c1002c 	andhi	r3,r2,1024
 40010a8:	18000626 	beq	r3,zero,40010c4 <__mulsf3+0x404>
 40010ac:	a829883a 	mov	r20,r21
 40010b0:	00c00044 	movi	r3,1
 40010b4:	0009883a 	mov	r4,zero
 40010b8:	003f5406 	br	4000e0c <__alt_mem_onchip_ram+0xfbf7ce0c>
 40010bc:	3821883a 	mov	r16,r7
 40010c0:	003fc506 	br	4000fd8 <__alt_mem_onchip_ram+0xfbf7cfd8>
 40010c4:	100491ba 	slli	r2,r2,6
 40010c8:	a829883a 	mov	r20,r21
 40010cc:	0007883a 	mov	r3,zero
 40010d0:	1008d27a 	srli	r4,r2,9
 40010d4:	003f4d06 	br	4000e0c <__alt_mem_onchip_ram+0xfbf7ce0c>
 40010d8:	00802034 	movhi	r2,128
 40010dc:	99001034 	orhi	r4,r19,64
 40010e0:	10bfffc4 	addi	r2,r2,-1
 40010e4:	a829883a 	mov	r20,r21
 40010e8:	2088703a 	and	r4,r4,r2
 40010ec:	003f8506 	br	4000f04 <__alt_mem_onchip_ram+0xfbf7cf04>

040010f0 <__subsf3>:
 40010f0:	defffc04 	addi	sp,sp,-16
 40010f4:	280cd5fa 	srli	r6,r5,23
 40010f8:	dc000015 	stw	r16,0(sp)
 40010fc:	01c02034 	movhi	r7,128
 4001100:	2020d5fa 	srli	r16,r4,23
 4001104:	39ffffc4 	addi	r7,r7,-1
 4001108:	3906703a 	and	r3,r7,r4
 400110c:	dc400115 	stw	r17,4(sp)
 4001110:	394e703a 	and	r7,r7,r5
 4001114:	2022d7fa 	srli	r17,r4,31
 4001118:	dfc00315 	stw	ra,12(sp)
 400111c:	dc800215 	stw	r18,8(sp)
 4001120:	31803fcc 	andi	r6,r6,255
 4001124:	01003fc4 	movi	r4,255
 4001128:	84003fcc 	andi	r16,r16,255
 400112c:	180690fa 	slli	r3,r3,3
 4001130:	2804d7fa 	srli	r2,r5,31
 4001134:	380e90fa 	slli	r7,r7,3
 4001138:	31006d26 	beq	r6,r4,40012f0 <__subsf3+0x200>
 400113c:	1080005c 	xori	r2,r2,1
 4001140:	8189c83a 	sub	r4,r16,r6
 4001144:	14404f26 	beq	r2,r17,4001284 <__subsf3+0x194>
 4001148:	0100770e 	bge	zero,r4,4001328 <__subsf3+0x238>
 400114c:	30001e1e 	bne	r6,zero,40011c8 <__subsf3+0xd8>
 4001150:	38006a1e 	bne	r7,zero,40012fc <__subsf3+0x20c>
 4001154:	188001cc 	andi	r2,r3,7
 4001158:	10000426 	beq	r2,zero,400116c <__subsf3+0x7c>
 400115c:	188003cc 	andi	r2,r3,15
 4001160:	01000104 	movi	r4,4
 4001164:	11000126 	beq	r2,r4,400116c <__subsf3+0x7c>
 4001168:	1907883a 	add	r3,r3,r4
 400116c:	1881002c 	andhi	r2,r3,1024
 4001170:	10003926 	beq	r2,zero,4001258 <__subsf3+0x168>
 4001174:	84000044 	addi	r16,r16,1
 4001178:	00803fc4 	movi	r2,255
 400117c:	80807526 	beq	r16,r2,4001354 <__subsf3+0x264>
 4001180:	180691ba 	slli	r3,r3,6
 4001184:	8880004c 	andi	r2,r17,1
 4001188:	180ad27a 	srli	r5,r3,9
 400118c:	84003fcc 	andi	r16,r16,255
 4001190:	800695fa 	slli	r3,r16,23
 4001194:	10803fcc 	andi	r2,r2,255
 4001198:	01002034 	movhi	r4,128
 400119c:	213fffc4 	addi	r4,r4,-1
 40011a0:	100497fa 	slli	r2,r2,31
 40011a4:	2920703a 	and	r16,r5,r4
 40011a8:	80e0b03a 	or	r16,r16,r3
 40011ac:	8084b03a 	or	r2,r16,r2
 40011b0:	dfc00317 	ldw	ra,12(sp)
 40011b4:	dc800217 	ldw	r18,8(sp)
 40011b8:	dc400117 	ldw	r17,4(sp)
 40011bc:	dc000017 	ldw	r16,0(sp)
 40011c0:	dec00404 	addi	sp,sp,16
 40011c4:	f800283a 	ret
 40011c8:	00803fc4 	movi	r2,255
 40011cc:	80bfe126 	beq	r16,r2,4001154 <__alt_mem_onchip_ram+0xfbf7d154>
 40011d0:	39c10034 	orhi	r7,r7,1024
 40011d4:	008006c4 	movi	r2,27
 40011d8:	11007416 	blt	r2,r4,40013ac <__subsf3+0x2bc>
 40011dc:	00800804 	movi	r2,32
 40011e0:	1105c83a 	sub	r2,r2,r4
 40011e4:	3884983a 	sll	r2,r7,r2
 40011e8:	390ed83a 	srl	r7,r7,r4
 40011ec:	1008c03a 	cmpne	r4,r2,zero
 40011f0:	390eb03a 	or	r7,r7,r4
 40011f4:	19c7c83a 	sub	r3,r3,r7
 40011f8:	1881002c 	andhi	r2,r3,1024
 40011fc:	10001426 	beq	r2,zero,4001250 <__subsf3+0x160>
 4001200:	04810034 	movhi	r18,1024
 4001204:	94bfffc4 	addi	r18,r18,-1
 4001208:	1ca4703a 	and	r18,r3,r18
 400120c:	9009883a 	mov	r4,r18
 4001210:	40016e40 	call	40016e4 <__clzsi2>
 4001214:	10bffec4 	addi	r2,r2,-5
 4001218:	90a4983a 	sll	r18,r18,r2
 400121c:	14005116 	blt	r2,r16,4001364 <__subsf3+0x274>
 4001220:	1405c83a 	sub	r2,r2,r16
 4001224:	10c00044 	addi	r3,r2,1
 4001228:	00800804 	movi	r2,32
 400122c:	10c5c83a 	sub	r2,r2,r3
 4001230:	9084983a 	sll	r2,r18,r2
 4001234:	90e4d83a 	srl	r18,r18,r3
 4001238:	0021883a 	mov	r16,zero
 400123c:	1006c03a 	cmpne	r3,r2,zero
 4001240:	90c6b03a 	or	r3,r18,r3
 4001244:	003fc306 	br	4001154 <__alt_mem_onchip_ram+0xfbf7d154>
 4001248:	2000e026 	beq	r4,zero,40015cc <__subsf3+0x4dc>
 400124c:	2007883a 	mov	r3,r4
 4001250:	188001cc 	andi	r2,r3,7
 4001254:	103fc11e 	bne	r2,zero,400115c <__alt_mem_onchip_ram+0xfbf7d15c>
 4001258:	180ad0fa 	srli	r5,r3,3
 400125c:	00c03fc4 	movi	r3,255
 4001260:	8880004c 	andi	r2,r17,1
 4001264:	80c0031e 	bne	r16,r3,4001274 <__subsf3+0x184>
 4001268:	28006d26 	beq	r5,zero,4001420 <__subsf3+0x330>
 400126c:	29401034 	orhi	r5,r5,64
 4001270:	043fffc4 	movi	r16,-1
 4001274:	00c02034 	movhi	r3,128
 4001278:	18ffffc4 	addi	r3,r3,-1
 400127c:	28ca703a 	and	r5,r5,r3
 4001280:	003fc206 	br	400118c <__alt_mem_onchip_ram+0xfbf7d18c>
 4001284:	01003c0e 	bge	zero,r4,4001378 <__subsf3+0x288>
 4001288:	30002126 	beq	r6,zero,4001310 <__subsf3+0x220>
 400128c:	01403fc4 	movi	r5,255
 4001290:	817fb026 	beq	r16,r5,4001154 <__alt_mem_onchip_ram+0xfbf7d154>
 4001294:	39c10034 	orhi	r7,r7,1024
 4001298:	014006c4 	movi	r5,27
 400129c:	29007416 	blt	r5,r4,4001470 <__subsf3+0x380>
 40012a0:	01400804 	movi	r5,32
 40012a4:	290bc83a 	sub	r5,r5,r4
 40012a8:	394a983a 	sll	r5,r7,r5
 40012ac:	390ed83a 	srl	r7,r7,r4
 40012b0:	2808c03a 	cmpne	r4,r5,zero
 40012b4:	390eb03a 	or	r7,r7,r4
 40012b8:	19c7883a 	add	r3,r3,r7
 40012bc:	1901002c 	andhi	r4,r3,1024
 40012c0:	20003826 	beq	r4,zero,40013a4 <__subsf3+0x2b4>
 40012c4:	84000044 	addi	r16,r16,1
 40012c8:	01003fc4 	movi	r4,255
 40012cc:	81005426 	beq	r16,r4,4001420 <__subsf3+0x330>
 40012d0:	1023883a 	mov	r17,r2
 40012d4:	00bf0034 	movhi	r2,64512
 40012d8:	10bfffc4 	addi	r2,r2,-1
 40012dc:	1900004c 	andi	r4,r3,1
 40012e0:	1886703a 	and	r3,r3,r2
 40012e4:	1806d07a 	srli	r3,r3,1
 40012e8:	1906b03a 	or	r3,r3,r4
 40012ec:	003f9906 	br	4001154 <__alt_mem_onchip_ram+0xfbf7d154>
 40012f0:	383f9226 	beq	r7,zero,400113c <__alt_mem_onchip_ram+0xfbf7d13c>
 40012f4:	10803fcc 	andi	r2,r2,255
 40012f8:	003f9106 	br	4001140 <__alt_mem_onchip_ram+0xfbf7d140>
 40012fc:	213fffc4 	addi	r4,r4,-1
 4001300:	203fbc26 	beq	r4,zero,40011f4 <__alt_mem_onchip_ram+0xfbf7d1f4>
 4001304:	00803fc4 	movi	r2,255
 4001308:	80bfb21e 	bne	r16,r2,40011d4 <__alt_mem_onchip_ram+0xfbf7d1d4>
 400130c:	003f9106 	br	4001154 <__alt_mem_onchip_ram+0xfbf7d154>
 4001310:	383f9026 	beq	r7,zero,4001154 <__alt_mem_onchip_ram+0xfbf7d154>
 4001314:	213fffc4 	addi	r4,r4,-1
 4001318:	203fe726 	beq	r4,zero,40012b8 <__alt_mem_onchip_ram+0xfbf7d2b8>
 400131c:	01403fc4 	movi	r5,255
 4001320:	817fdd1e 	bne	r16,r5,4001298 <__alt_mem_onchip_ram+0xfbf7d298>
 4001324:	003f8b06 	br	4001154 <__alt_mem_onchip_ram+0xfbf7d154>
 4001328:	2000221e 	bne	r4,zero,40013b4 <__subsf3+0x2c4>
 400132c:	81000044 	addi	r4,r16,1
 4001330:	21003fcc 	andi	r4,r4,255
 4001334:	01400044 	movi	r5,1
 4001338:	2900470e 	bge	r5,r4,4001458 <__subsf3+0x368>
 400133c:	19e5c83a 	sub	r18,r3,r7
 4001340:	9141002c 	andhi	r5,r18,1024
 4001344:	28002d26 	beq	r5,zero,40013fc <__subsf3+0x30c>
 4001348:	38e5c83a 	sub	r18,r7,r3
 400134c:	1023883a 	mov	r17,r2
 4001350:	003fae06 	br	400120c <__alt_mem_onchip_ram+0xfbf7d20c>
 4001354:	8880004c 	andi	r2,r17,1
 4001358:	043fffc4 	movi	r16,-1
 400135c:	000b883a 	mov	r5,zero
 4001360:	003f8a06 	br	400118c <__alt_mem_onchip_ram+0xfbf7d18c>
 4001364:	00ff0034 	movhi	r3,64512
 4001368:	18ffffc4 	addi	r3,r3,-1
 400136c:	80a1c83a 	sub	r16,r16,r2
 4001370:	90c6703a 	and	r3,r18,r3
 4001374:	003f7706 	br	4001154 <__alt_mem_onchip_ram+0xfbf7d154>
 4001378:	2000431e 	bne	r4,zero,4001488 <__subsf3+0x398>
 400137c:	81000044 	addi	r4,r16,1
 4001380:	21803fcc 	andi	r6,r4,255
 4001384:	01400044 	movi	r5,1
 4001388:	2980280e 	bge	r5,r6,400142c <__subsf3+0x33c>
 400138c:	01403fc4 	movi	r5,255
 4001390:	21402326 	beq	r4,r5,4001420 <__subsf3+0x330>
 4001394:	19c7883a 	add	r3,r3,r7
 4001398:	1806d07a 	srli	r3,r3,1
 400139c:	2021883a 	mov	r16,r4
 40013a0:	003f6c06 	br	4001154 <__alt_mem_onchip_ram+0xfbf7d154>
 40013a4:	1023883a 	mov	r17,r2
 40013a8:	003fa906 	br	4001250 <__alt_mem_onchip_ram+0xfbf7d250>
 40013ac:	01c00044 	movi	r7,1
 40013b0:	003f9006 	br	40011f4 <__alt_mem_onchip_ram+0xfbf7d1f4>
 40013b4:	8000151e 	bne	r16,zero,400140c <__subsf3+0x31c>
 40013b8:	18002f26 	beq	r3,zero,4001478 <__subsf3+0x388>
 40013bc:	0108303a 	nor	r4,zero,r4
 40013c0:	20000a26 	beq	r4,zero,40013ec <__subsf3+0x2fc>
 40013c4:	01403fc4 	movi	r5,255
 40013c8:	31402b26 	beq	r6,r5,4001478 <__subsf3+0x388>
 40013cc:	014006c4 	movi	r5,27
 40013d0:	29006e16 	blt	r5,r4,400158c <__subsf3+0x49c>
 40013d4:	01400804 	movi	r5,32
 40013d8:	290bc83a 	sub	r5,r5,r4
 40013dc:	194a983a 	sll	r5,r3,r5
 40013e0:	1908d83a 	srl	r4,r3,r4
 40013e4:	2806c03a 	cmpne	r3,r5,zero
 40013e8:	20c6b03a 	or	r3,r4,r3
 40013ec:	38c7c83a 	sub	r3,r7,r3
 40013f0:	3021883a 	mov	r16,r6
 40013f4:	1023883a 	mov	r17,r2
 40013f8:	003f7f06 	br	40011f8 <__alt_mem_onchip_ram+0xfbf7d1f8>
 40013fc:	903f831e 	bne	r18,zero,400120c <__alt_mem_onchip_ram+0xfbf7d20c>
 4001400:	0005883a 	mov	r2,zero
 4001404:	0021883a 	mov	r16,zero
 4001408:	003f9a06 	br	4001274 <__alt_mem_onchip_ram+0xfbf7d274>
 400140c:	01403fc4 	movi	r5,255
 4001410:	31401926 	beq	r6,r5,4001478 <__subsf3+0x388>
 4001414:	0109c83a 	sub	r4,zero,r4
 4001418:	18c10034 	orhi	r3,r3,1024
 400141c:	003feb06 	br	40013cc <__alt_mem_onchip_ram+0xfbf7d3cc>
 4001420:	043fffc4 	movi	r16,-1
 4001424:	000b883a 	mov	r5,zero
 4001428:	003f5806 	br	400118c <__alt_mem_onchip_ram+0xfbf7d18c>
 400142c:	8000481e 	bne	r16,zero,4001550 <__subsf3+0x460>
 4001430:	18006226 	beq	r3,zero,40015bc <__subsf3+0x4cc>
 4001434:	383f4726 	beq	r7,zero,4001154 <__alt_mem_onchip_ram+0xfbf7d154>
 4001438:	19c7883a 	add	r3,r3,r7
 400143c:	1881002c 	andhi	r2,r3,1024
 4001440:	103f8326 	beq	r2,zero,4001250 <__alt_mem_onchip_ram+0xfbf7d250>
 4001444:	00bf0034 	movhi	r2,64512
 4001448:	10bfffc4 	addi	r2,r2,-1
 400144c:	2821883a 	mov	r16,r5
 4001450:	1886703a 	and	r3,r3,r2
 4001454:	003f3f06 	br	4001154 <__alt_mem_onchip_ram+0xfbf7d154>
 4001458:	80001c1e 	bne	r16,zero,40014cc <__subsf3+0x3dc>
 400145c:	1800261e 	bne	r3,zero,40014f8 <__subsf3+0x408>
 4001460:	38004c26 	beq	r7,zero,4001594 <__subsf3+0x4a4>
 4001464:	3807883a 	mov	r3,r7
 4001468:	1023883a 	mov	r17,r2
 400146c:	003f3906 	br	4001154 <__alt_mem_onchip_ram+0xfbf7d154>
 4001470:	01c00044 	movi	r7,1
 4001474:	003f9006 	br	40012b8 <__alt_mem_onchip_ram+0xfbf7d2b8>
 4001478:	3807883a 	mov	r3,r7
 400147c:	3021883a 	mov	r16,r6
 4001480:	1023883a 	mov	r17,r2
 4001484:	003f3306 	br	4001154 <__alt_mem_onchip_ram+0xfbf7d154>
 4001488:	8000161e 	bne	r16,zero,40014e4 <__subsf3+0x3f4>
 400148c:	18002d26 	beq	r3,zero,4001544 <__subsf3+0x454>
 4001490:	0108303a 	nor	r4,zero,r4
 4001494:	20000a26 	beq	r4,zero,40014c0 <__subsf3+0x3d0>
 4001498:	01403fc4 	movi	r5,255
 400149c:	31402926 	beq	r6,r5,4001544 <__subsf3+0x454>
 40014a0:	014006c4 	movi	r5,27
 40014a4:	29004716 	blt	r5,r4,40015c4 <__subsf3+0x4d4>
 40014a8:	01400804 	movi	r5,32
 40014ac:	290bc83a 	sub	r5,r5,r4
 40014b0:	194a983a 	sll	r5,r3,r5
 40014b4:	1908d83a 	srl	r4,r3,r4
 40014b8:	2806c03a 	cmpne	r3,r5,zero
 40014bc:	20c6b03a 	or	r3,r4,r3
 40014c0:	19c7883a 	add	r3,r3,r7
 40014c4:	3021883a 	mov	r16,r6
 40014c8:	003f7c06 	br	40012bc <__alt_mem_onchip_ram+0xfbf7d2bc>
 40014cc:	1800111e 	bne	r3,zero,4001514 <__subsf3+0x424>
 40014d0:	38003326 	beq	r7,zero,40015a0 <__subsf3+0x4b0>
 40014d4:	3807883a 	mov	r3,r7
 40014d8:	1023883a 	mov	r17,r2
 40014dc:	04003fc4 	movi	r16,255
 40014e0:	003f1c06 	br	4001154 <__alt_mem_onchip_ram+0xfbf7d154>
 40014e4:	01403fc4 	movi	r5,255
 40014e8:	31401626 	beq	r6,r5,4001544 <__subsf3+0x454>
 40014ec:	0109c83a 	sub	r4,zero,r4
 40014f0:	18c10034 	orhi	r3,r3,1024
 40014f4:	003fea06 	br	40014a0 <__alt_mem_onchip_ram+0xfbf7d4a0>
 40014f8:	383f1626 	beq	r7,zero,4001154 <__alt_mem_onchip_ram+0xfbf7d154>
 40014fc:	19c9c83a 	sub	r4,r3,r7
 4001500:	2141002c 	andhi	r5,r4,1024
 4001504:	283f5026 	beq	r5,zero,4001248 <__alt_mem_onchip_ram+0xfbf7d248>
 4001508:	38c7c83a 	sub	r3,r7,r3
 400150c:	1023883a 	mov	r17,r2
 4001510:	003f1006 	br	4001154 <__alt_mem_onchip_ram+0xfbf7d154>
 4001514:	38001b26 	beq	r7,zero,4001584 <__subsf3+0x494>
 4001518:	1806d0fa 	srli	r3,r3,3
 400151c:	1900102c 	andhi	r4,r3,64
 4001520:	20000526 	beq	r4,zero,4001538 <__subsf3+0x448>
 4001524:	380ed0fa 	srli	r7,r7,3
 4001528:	3900102c 	andhi	r4,r7,64
 400152c:	2000021e 	bne	r4,zero,4001538 <__subsf3+0x448>
 4001530:	3807883a 	mov	r3,r7
 4001534:	1023883a 	mov	r17,r2
 4001538:	180690fa 	slli	r3,r3,3
 400153c:	04003fc4 	movi	r16,255
 4001540:	003f0406 	br	4001154 <__alt_mem_onchip_ram+0xfbf7d154>
 4001544:	3807883a 	mov	r3,r7
 4001548:	3021883a 	mov	r16,r6
 400154c:	003f0106 	br	4001154 <__alt_mem_onchip_ram+0xfbf7d154>
 4001550:	18001726 	beq	r3,zero,40015b0 <__subsf3+0x4c0>
 4001554:	38000b26 	beq	r7,zero,4001584 <__subsf3+0x494>
 4001558:	1806d0fa 	srli	r3,r3,3
 400155c:	1900102c 	andhi	r4,r3,64
 4001560:	20000426 	beq	r4,zero,4001574 <__subsf3+0x484>
 4001564:	380ed0fa 	srli	r7,r7,3
 4001568:	3900102c 	andhi	r4,r7,64
 400156c:	2000011e 	bne	r4,zero,4001574 <__subsf3+0x484>
 4001570:	3807883a 	mov	r3,r7
 4001574:	180690fa 	slli	r3,r3,3
 4001578:	1023883a 	mov	r17,r2
 400157c:	04003fc4 	movi	r16,255
 4001580:	003ef406 	br	4001154 <__alt_mem_onchip_ram+0xfbf7d154>
 4001584:	04003fc4 	movi	r16,255
 4001588:	003ef206 	br	4001154 <__alt_mem_onchip_ram+0xfbf7d154>
 400158c:	00c00044 	movi	r3,1
 4001590:	003f9606 	br	40013ec <__alt_mem_onchip_ram+0xfbf7d3ec>
 4001594:	000b883a 	mov	r5,zero
 4001598:	0005883a 	mov	r2,zero
 400159c:	003f3506 	br	4001274 <__alt_mem_onchip_ram+0xfbf7d274>
 40015a0:	01402034 	movhi	r5,128
 40015a4:	297fffc4 	addi	r5,r5,-1
 40015a8:	0005883a 	mov	r2,zero
 40015ac:	003f2f06 	br	400126c <__alt_mem_onchip_ram+0xfbf7d26c>
 40015b0:	3807883a 	mov	r3,r7
 40015b4:	04003fc4 	movi	r16,255
 40015b8:	003ee606 	br	4001154 <__alt_mem_onchip_ram+0xfbf7d154>
 40015bc:	3807883a 	mov	r3,r7
 40015c0:	003ee406 	br	4001154 <__alt_mem_onchip_ram+0xfbf7d154>
 40015c4:	00c00044 	movi	r3,1
 40015c8:	003fbd06 	br	40014c0 <__alt_mem_onchip_ram+0xfbf7d4c0>
 40015cc:	0005883a 	mov	r2,zero
 40015d0:	003f2806 	br	4001274 <__alt_mem_onchip_ram+0xfbf7d274>

040015d4 <__extendsfdf2>:
 40015d4:	200ad5fa 	srli	r5,r4,23
 40015d8:	defffd04 	addi	sp,sp,-12
 40015dc:	dc400115 	stw	r17,4(sp)
 40015e0:	29403fcc 	andi	r5,r5,255
 40015e4:	29800044 	addi	r6,r5,1
 40015e8:	04402034 	movhi	r17,128
 40015ec:	dc000015 	stw	r16,0(sp)
 40015f0:	8c7fffc4 	addi	r17,r17,-1
 40015f4:	dfc00215 	stw	ra,8(sp)
 40015f8:	31803fcc 	andi	r6,r6,255
 40015fc:	00800044 	movi	r2,1
 4001600:	8922703a 	and	r17,r17,r4
 4001604:	2020d7fa 	srli	r16,r4,31
 4001608:	1180110e 	bge	r2,r6,4001650 <__extendsfdf2+0x7c>
 400160c:	880cd0fa 	srli	r6,r17,3
 4001610:	8822977a 	slli	r17,r17,29
 4001614:	2940e004 	addi	r5,r5,896
 4001618:	2941ffcc 	andi	r5,r5,2047
 400161c:	2804953a 	slli	r2,r5,20
 4001620:	01400434 	movhi	r5,16
 4001624:	800697fa 	slli	r3,r16,31
 4001628:	297fffc4 	addi	r5,r5,-1
 400162c:	314a703a 	and	r5,r6,r5
 4001630:	288ab03a 	or	r5,r5,r2
 4001634:	28c6b03a 	or	r3,r5,r3
 4001638:	8805883a 	mov	r2,r17
 400163c:	dfc00217 	ldw	ra,8(sp)
 4001640:	dc400117 	ldw	r17,4(sp)
 4001644:	dc000017 	ldw	r16,0(sp)
 4001648:	dec00304 	addi	sp,sp,12
 400164c:	f800283a 	ret
 4001650:	2800111e 	bne	r5,zero,4001698 <__extendsfdf2+0xc4>
 4001654:	88001c26 	beq	r17,zero,40016c8 <__extendsfdf2+0xf4>
 4001658:	8809883a 	mov	r4,r17
 400165c:	40016e40 	call	40016e4 <__clzsi2>
 4001660:	00c00284 	movi	r3,10
 4001664:	18801b16 	blt	r3,r2,40016d4 <__extendsfdf2+0x100>
 4001668:	018002c4 	movi	r6,11
 400166c:	308dc83a 	sub	r6,r6,r2
 4001670:	11000544 	addi	r4,r2,21
 4001674:	8986d83a 	srl	r3,r17,r6
 4001678:	8922983a 	sll	r17,r17,r4
 400167c:	0180e244 	movi	r6,905
 4001680:	01400434 	movhi	r5,16
 4001684:	3085c83a 	sub	r2,r6,r2
 4001688:	297fffc4 	addi	r5,r5,-1
 400168c:	194c703a 	and	r6,r3,r5
 4001690:	1141ffcc 	andi	r5,r2,2047
 4001694:	003fe006 	br	4001618 <__alt_mem_onchip_ram+0xfbf7d618>
 4001698:	88000826 	beq	r17,zero,40016bc <__extendsfdf2+0xe8>
 400169c:	880cd0fa 	srli	r6,r17,3
 40016a0:	00800434 	movhi	r2,16
 40016a4:	10bfffc4 	addi	r2,r2,-1
 40016a8:	31800234 	orhi	r6,r6,8
 40016ac:	8822977a 	slli	r17,r17,29
 40016b0:	308c703a 	and	r6,r6,r2
 40016b4:	0141ffc4 	movi	r5,2047
 40016b8:	003fd706 	br	4001618 <__alt_mem_onchip_ram+0xfbf7d618>
 40016bc:	0141ffc4 	movi	r5,2047
 40016c0:	000d883a 	mov	r6,zero
 40016c4:	003fd406 	br	4001618 <__alt_mem_onchip_ram+0xfbf7d618>
 40016c8:	000b883a 	mov	r5,zero
 40016cc:	000d883a 	mov	r6,zero
 40016d0:	003fd106 	br	4001618 <__alt_mem_onchip_ram+0xfbf7d618>
 40016d4:	11bffd44 	addi	r6,r2,-11
 40016d8:	8986983a 	sll	r3,r17,r6
 40016dc:	0023883a 	mov	r17,zero
 40016e0:	003fe606 	br	400167c <__alt_mem_onchip_ram+0xfbf7d67c>

040016e4 <__clzsi2>:
 40016e4:	00bfffd4 	movui	r2,65535
 40016e8:	11000536 	bltu	r2,r4,4001700 <__clzsi2+0x1c>
 40016ec:	00803fc4 	movi	r2,255
 40016f0:	11000f36 	bltu	r2,r4,4001730 <__clzsi2+0x4c>
 40016f4:	00800804 	movi	r2,32
 40016f8:	0007883a 	mov	r3,zero
 40016fc:	00000506 	br	4001714 <__clzsi2+0x30>
 4001700:	00804034 	movhi	r2,256
 4001704:	10bfffc4 	addi	r2,r2,-1
 4001708:	11000c2e 	bgeu	r2,r4,400173c <__clzsi2+0x58>
 400170c:	00800204 	movi	r2,8
 4001710:	00c00604 	movi	r3,24
 4001714:	20c8d83a 	srl	r4,r4,r3
 4001718:	00c10074 	movhi	r3,1025
 400171c:	18c5e204 	addi	r3,r3,6024
 4001720:	1909883a 	add	r4,r3,r4
 4001724:	20c00003 	ldbu	r3,0(r4)
 4001728:	10c5c83a 	sub	r2,r2,r3
 400172c:	f800283a 	ret
 4001730:	00800604 	movi	r2,24
 4001734:	00c00204 	movi	r3,8
 4001738:	003ff606 	br	4001714 <__alt_mem_onchip_ram+0xfbf7d714>
 400173c:	00800404 	movi	r2,16
 4001740:	1007883a 	mov	r3,r2
 4001744:	003ff306 	br	4001714 <__alt_mem_onchip_ram+0xfbf7d714>

04001748 <__mulsi3>:
 4001748:	0005883a 	mov	r2,zero
 400174c:	20000726 	beq	r4,zero,400176c <__mulsi3+0x24>
 4001750:	20c0004c 	andi	r3,r4,1
 4001754:	2008d07a 	srli	r4,r4,1
 4001758:	18000126 	beq	r3,zero,4001760 <__mulsi3+0x18>
 400175c:	1145883a 	add	r2,r2,r5
 4001760:	294b883a 	add	r5,r5,r5
 4001764:	203ffa1e 	bne	r4,zero,4001750 <__alt_mem_onchip_ram+0xfbf7d750>
 4001768:	f800283a 	ret
 400176c:	f800283a 	ret

04001770 <memcpy>:
 4001770:	defffd04 	addi	sp,sp,-12
 4001774:	dfc00215 	stw	ra,8(sp)
 4001778:	dc400115 	stw	r17,4(sp)
 400177c:	dc000015 	stw	r16,0(sp)
 4001780:	00c003c4 	movi	r3,15
 4001784:	2005883a 	mov	r2,r4
 4001788:	1980452e 	bgeu	r3,r6,40018a0 <memcpy+0x130>
 400178c:	2906b03a 	or	r3,r5,r4
 4001790:	18c000cc 	andi	r3,r3,3
 4001794:	1800441e 	bne	r3,zero,40018a8 <memcpy+0x138>
 4001798:	347ffc04 	addi	r17,r6,-16
 400179c:	8822d13a 	srli	r17,r17,4
 40017a0:	28c00104 	addi	r3,r5,4
 40017a4:	23400104 	addi	r13,r4,4
 40017a8:	8820913a 	slli	r16,r17,4
 40017ac:	2b000204 	addi	r12,r5,8
 40017b0:	22c00204 	addi	r11,r4,8
 40017b4:	84000504 	addi	r16,r16,20
 40017b8:	2a800304 	addi	r10,r5,12
 40017bc:	22400304 	addi	r9,r4,12
 40017c0:	2c21883a 	add	r16,r5,r16
 40017c4:	2811883a 	mov	r8,r5
 40017c8:	200f883a 	mov	r7,r4
 40017cc:	41000017 	ldw	r4,0(r8)
 40017d0:	1fc00017 	ldw	ra,0(r3)
 40017d4:	63c00017 	ldw	r15,0(r12)
 40017d8:	39000015 	stw	r4,0(r7)
 40017dc:	53800017 	ldw	r14,0(r10)
 40017e0:	6fc00015 	stw	ra,0(r13)
 40017e4:	5bc00015 	stw	r15,0(r11)
 40017e8:	4b800015 	stw	r14,0(r9)
 40017ec:	18c00404 	addi	r3,r3,16
 40017f0:	39c00404 	addi	r7,r7,16
 40017f4:	42000404 	addi	r8,r8,16
 40017f8:	6b400404 	addi	r13,r13,16
 40017fc:	63000404 	addi	r12,r12,16
 4001800:	5ac00404 	addi	r11,r11,16
 4001804:	52800404 	addi	r10,r10,16
 4001808:	4a400404 	addi	r9,r9,16
 400180c:	1c3fef1e 	bne	r3,r16,40017cc <__alt_mem_onchip_ram+0xfbf7d7cc>
 4001810:	89c00044 	addi	r7,r17,1
 4001814:	380e913a 	slli	r7,r7,4
 4001818:	310003cc 	andi	r4,r6,15
 400181c:	02c000c4 	movi	r11,3
 4001820:	11c7883a 	add	r3,r2,r7
 4001824:	29cb883a 	add	r5,r5,r7
 4001828:	5900212e 	bgeu	r11,r4,40018b0 <memcpy+0x140>
 400182c:	1813883a 	mov	r9,r3
 4001830:	2811883a 	mov	r8,r5
 4001834:	200f883a 	mov	r7,r4
 4001838:	42800017 	ldw	r10,0(r8)
 400183c:	4a400104 	addi	r9,r9,4
 4001840:	39ffff04 	addi	r7,r7,-4
 4001844:	4abfff15 	stw	r10,-4(r9)
 4001848:	42000104 	addi	r8,r8,4
 400184c:	59fffa36 	bltu	r11,r7,4001838 <__alt_mem_onchip_ram+0xfbf7d838>
 4001850:	213fff04 	addi	r4,r4,-4
 4001854:	2008d0ba 	srli	r4,r4,2
 4001858:	318000cc 	andi	r6,r6,3
 400185c:	21000044 	addi	r4,r4,1
 4001860:	2109883a 	add	r4,r4,r4
 4001864:	2109883a 	add	r4,r4,r4
 4001868:	1907883a 	add	r3,r3,r4
 400186c:	290b883a 	add	r5,r5,r4
 4001870:	30000626 	beq	r6,zero,400188c <memcpy+0x11c>
 4001874:	198d883a 	add	r6,r3,r6
 4001878:	29c00003 	ldbu	r7,0(r5)
 400187c:	18c00044 	addi	r3,r3,1
 4001880:	29400044 	addi	r5,r5,1
 4001884:	19ffffc5 	stb	r7,-1(r3)
 4001888:	19bffb1e 	bne	r3,r6,4001878 <__alt_mem_onchip_ram+0xfbf7d878>
 400188c:	dfc00217 	ldw	ra,8(sp)
 4001890:	dc400117 	ldw	r17,4(sp)
 4001894:	dc000017 	ldw	r16,0(sp)
 4001898:	dec00304 	addi	sp,sp,12
 400189c:	f800283a 	ret
 40018a0:	2007883a 	mov	r3,r4
 40018a4:	003ff206 	br	4001870 <__alt_mem_onchip_ram+0xfbf7d870>
 40018a8:	2007883a 	mov	r3,r4
 40018ac:	003ff106 	br	4001874 <__alt_mem_onchip_ram+0xfbf7d874>
 40018b0:	200d883a 	mov	r6,r4
 40018b4:	003fee06 	br	4001870 <__alt_mem_onchip_ram+0xfbf7d870>

040018b8 <_printf_r>:
 40018b8:	defffd04 	addi	sp,sp,-12
 40018bc:	2805883a 	mov	r2,r5
 40018c0:	dfc00015 	stw	ra,0(sp)
 40018c4:	d9800115 	stw	r6,4(sp)
 40018c8:	d9c00215 	stw	r7,8(sp)
 40018cc:	21400217 	ldw	r5,8(r4)
 40018d0:	d9c00104 	addi	r7,sp,4
 40018d4:	100d883a 	mov	r6,r2
 40018d8:	4001a900 	call	4001a90 <___vfprintf_internal_r>
 40018dc:	dfc00017 	ldw	ra,0(sp)
 40018e0:	dec00304 	addi	sp,sp,12
 40018e4:	f800283a 	ret

040018e8 <printf>:
 40018e8:	defffc04 	addi	sp,sp,-16
 40018ec:	dfc00015 	stw	ra,0(sp)
 40018f0:	d9400115 	stw	r5,4(sp)
 40018f4:	d9800215 	stw	r6,8(sp)
 40018f8:	d9c00315 	stw	r7,12(sp)
 40018fc:	00810074 	movhi	r2,1025
 4001900:	108d4c04 	addi	r2,r2,13616
 4001904:	10800017 	ldw	r2,0(r2)
 4001908:	200b883a 	mov	r5,r4
 400190c:	d9800104 	addi	r6,sp,4
 4001910:	11000217 	ldw	r4,8(r2)
 4001914:	4003d6c0 	call	4003d6c <__vfprintf_internal>
 4001918:	dfc00017 	ldw	ra,0(sp)
 400191c:	dec00404 	addi	sp,sp,16
 4001920:	f800283a 	ret

04001924 <_puts_r>:
 4001924:	defff604 	addi	sp,sp,-40
 4001928:	dc000715 	stw	r16,28(sp)
 400192c:	2021883a 	mov	r16,r4
 4001930:	2809883a 	mov	r4,r5
 4001934:	dc400815 	stw	r17,32(sp)
 4001938:	dfc00915 	stw	ra,36(sp)
 400193c:	2823883a 	mov	r17,r5
 4001940:	40019f80 	call	40019f8 <strlen>
 4001944:	10c00044 	addi	r3,r2,1
 4001948:	d8800115 	stw	r2,4(sp)
 400194c:	00810074 	movhi	r2,1025
 4001950:	10862204 	addi	r2,r2,6280
 4001954:	d8800215 	stw	r2,8(sp)
 4001958:	00800044 	movi	r2,1
 400195c:	d8800315 	stw	r2,12(sp)
 4001960:	00800084 	movi	r2,2
 4001964:	dc400015 	stw	r17,0(sp)
 4001968:	d8c00615 	stw	r3,24(sp)
 400196c:	dec00415 	stw	sp,16(sp)
 4001970:	d8800515 	stw	r2,20(sp)
 4001974:	80000226 	beq	r16,zero,4001980 <_puts_r+0x5c>
 4001978:	80800e17 	ldw	r2,56(r16)
 400197c:	10001426 	beq	r2,zero,40019d0 <_puts_r+0xac>
 4001980:	81400217 	ldw	r5,8(r16)
 4001984:	2880030b 	ldhu	r2,12(r5)
 4001988:	10c8000c 	andi	r3,r2,8192
 400198c:	1800061e 	bne	r3,zero,40019a8 <_puts_r+0x84>
 4001990:	29001917 	ldw	r4,100(r5)
 4001994:	00f7ffc4 	movi	r3,-8193
 4001998:	10880014 	ori	r2,r2,8192
 400199c:	20c6703a 	and	r3,r4,r3
 40019a0:	2880030d 	sth	r2,12(r5)
 40019a4:	28c01915 	stw	r3,100(r5)
 40019a8:	d9800404 	addi	r6,sp,16
 40019ac:	8009883a 	mov	r4,r16
 40019b0:	40062d40 	call	40062d4 <__sfvwrite_r>
 40019b4:	1000091e 	bne	r2,zero,40019dc <_puts_r+0xb8>
 40019b8:	00800284 	movi	r2,10
 40019bc:	dfc00917 	ldw	ra,36(sp)
 40019c0:	dc400817 	ldw	r17,32(sp)
 40019c4:	dc000717 	ldw	r16,28(sp)
 40019c8:	dec00a04 	addi	sp,sp,40
 40019cc:	f800283a 	ret
 40019d0:	8009883a 	mov	r4,r16
 40019d4:	4005e500 	call	4005e50 <__sinit>
 40019d8:	003fe906 	br	4001980 <__alt_mem_onchip_ram+0xfbf7d980>
 40019dc:	00bfffc4 	movi	r2,-1
 40019e0:	003ff606 	br	40019bc <__alt_mem_onchip_ram+0xfbf7d9bc>

040019e4 <puts>:
 40019e4:	00810074 	movhi	r2,1025
 40019e8:	108d4c04 	addi	r2,r2,13616
 40019ec:	200b883a 	mov	r5,r4
 40019f0:	11000017 	ldw	r4,0(r2)
 40019f4:	40019241 	jmpi	4001924 <_puts_r>

040019f8 <strlen>:
 40019f8:	208000cc 	andi	r2,r4,3
 40019fc:	10002026 	beq	r2,zero,4001a80 <strlen+0x88>
 4001a00:	20800007 	ldb	r2,0(r4)
 4001a04:	10002026 	beq	r2,zero,4001a88 <strlen+0x90>
 4001a08:	2005883a 	mov	r2,r4
 4001a0c:	00000206 	br	4001a18 <strlen+0x20>
 4001a10:	10c00007 	ldb	r3,0(r2)
 4001a14:	18001826 	beq	r3,zero,4001a78 <strlen+0x80>
 4001a18:	10800044 	addi	r2,r2,1
 4001a1c:	10c000cc 	andi	r3,r2,3
 4001a20:	183ffb1e 	bne	r3,zero,4001a10 <__alt_mem_onchip_ram+0xfbf7da10>
 4001a24:	10c00017 	ldw	r3,0(r2)
 4001a28:	01ffbff4 	movhi	r7,65279
 4001a2c:	39ffbfc4 	addi	r7,r7,-257
 4001a30:	00ca303a 	nor	r5,zero,r3
 4001a34:	01a02074 	movhi	r6,32897
 4001a38:	19c7883a 	add	r3,r3,r7
 4001a3c:	31a02004 	addi	r6,r6,-32640
 4001a40:	1946703a 	and	r3,r3,r5
 4001a44:	1986703a 	and	r3,r3,r6
 4001a48:	1800091e 	bne	r3,zero,4001a70 <strlen+0x78>
 4001a4c:	10800104 	addi	r2,r2,4
 4001a50:	10c00017 	ldw	r3,0(r2)
 4001a54:	19cb883a 	add	r5,r3,r7
 4001a58:	00c6303a 	nor	r3,zero,r3
 4001a5c:	28c6703a 	and	r3,r5,r3
 4001a60:	1986703a 	and	r3,r3,r6
 4001a64:	183ff926 	beq	r3,zero,4001a4c <__alt_mem_onchip_ram+0xfbf7da4c>
 4001a68:	00000106 	br	4001a70 <strlen+0x78>
 4001a6c:	10800044 	addi	r2,r2,1
 4001a70:	10c00007 	ldb	r3,0(r2)
 4001a74:	183ffd1e 	bne	r3,zero,4001a6c <__alt_mem_onchip_ram+0xfbf7da6c>
 4001a78:	1105c83a 	sub	r2,r2,r4
 4001a7c:	f800283a 	ret
 4001a80:	2005883a 	mov	r2,r4
 4001a84:	003fe706 	br	4001a24 <__alt_mem_onchip_ram+0xfbf7da24>
 4001a88:	0005883a 	mov	r2,zero
 4001a8c:	f800283a 	ret

04001a90 <___vfprintf_internal_r>:
 4001a90:	deffb804 	addi	sp,sp,-288
 4001a94:	dfc04715 	stw	ra,284(sp)
 4001a98:	ddc04515 	stw	r23,276(sp)
 4001a9c:	dd404315 	stw	r21,268(sp)
 4001aa0:	d9002d15 	stw	r4,180(sp)
 4001aa4:	282f883a 	mov	r23,r5
 4001aa8:	302b883a 	mov	r21,r6
 4001aac:	d9c02e15 	stw	r7,184(sp)
 4001ab0:	df004615 	stw	fp,280(sp)
 4001ab4:	dd804415 	stw	r22,272(sp)
 4001ab8:	dd004215 	stw	r20,264(sp)
 4001abc:	dcc04115 	stw	r19,260(sp)
 4001ac0:	dc804015 	stw	r18,256(sp)
 4001ac4:	dc403f15 	stw	r17,252(sp)
 4001ac8:	dc003e15 	stw	r16,248(sp)
 4001acc:	40069d00 	call	40069d0 <_localeconv_r>
 4001ad0:	10800017 	ldw	r2,0(r2)
 4001ad4:	1009883a 	mov	r4,r2
 4001ad8:	d8803415 	stw	r2,208(sp)
 4001adc:	40019f80 	call	40019f8 <strlen>
 4001ae0:	d8803715 	stw	r2,220(sp)
 4001ae4:	d8802d17 	ldw	r2,180(sp)
 4001ae8:	10000226 	beq	r2,zero,4001af4 <___vfprintf_internal_r+0x64>
 4001aec:	10800e17 	ldw	r2,56(r2)
 4001af0:	1000fb26 	beq	r2,zero,4001ee0 <___vfprintf_internal_r+0x450>
 4001af4:	b880030b 	ldhu	r2,12(r23)
 4001af8:	10c8000c 	andi	r3,r2,8192
 4001afc:	1800061e 	bne	r3,zero,4001b18 <___vfprintf_internal_r+0x88>
 4001b00:	b9001917 	ldw	r4,100(r23)
 4001b04:	00f7ffc4 	movi	r3,-8193
 4001b08:	10880014 	ori	r2,r2,8192
 4001b0c:	20c6703a 	and	r3,r4,r3
 4001b10:	b880030d 	sth	r2,12(r23)
 4001b14:	b8c01915 	stw	r3,100(r23)
 4001b18:	10c0020c 	andi	r3,r2,8
 4001b1c:	1800c326 	beq	r3,zero,4001e2c <___vfprintf_internal_r+0x39c>
 4001b20:	b8c00417 	ldw	r3,16(r23)
 4001b24:	1800c126 	beq	r3,zero,4001e2c <___vfprintf_internal_r+0x39c>
 4001b28:	1080068c 	andi	r2,r2,26
 4001b2c:	00c00284 	movi	r3,10
 4001b30:	10c0c626 	beq	r2,r3,4001e4c <___vfprintf_internal_r+0x3bc>
 4001b34:	d8c00404 	addi	r3,sp,16
 4001b38:	05010074 	movhi	r20,1025
 4001b3c:	d9001e04 	addi	r4,sp,120
 4001b40:	a5063384 	addi	r20,r20,6350
 4001b44:	d8c01e15 	stw	r3,120(sp)
 4001b48:	d8002015 	stw	zero,128(sp)
 4001b4c:	d8001f15 	stw	zero,124(sp)
 4001b50:	d8003315 	stw	zero,204(sp)
 4001b54:	d8003615 	stw	zero,216(sp)
 4001b58:	d8003815 	stw	zero,224(sp)
 4001b5c:	1811883a 	mov	r8,r3
 4001b60:	d8003915 	stw	zero,228(sp)
 4001b64:	d8003a15 	stw	zero,232(sp)
 4001b68:	d8002f15 	stw	zero,188(sp)
 4001b6c:	d9002815 	stw	r4,160(sp)
 4001b70:	a8800007 	ldb	r2,0(r21)
 4001b74:	10028b26 	beq	r2,zero,40025a4 <___vfprintf_internal_r+0xb14>
 4001b78:	00c00944 	movi	r3,37
 4001b7c:	a823883a 	mov	r17,r21
 4001b80:	10c0021e 	bne	r2,r3,4001b8c <___vfprintf_internal_r+0xfc>
 4001b84:	00001406 	br	4001bd8 <___vfprintf_internal_r+0x148>
 4001b88:	10c00326 	beq	r2,r3,4001b98 <___vfprintf_internal_r+0x108>
 4001b8c:	8c400044 	addi	r17,r17,1
 4001b90:	88800007 	ldb	r2,0(r17)
 4001b94:	103ffc1e 	bne	r2,zero,4001b88 <__alt_mem_onchip_ram+0xfbf7db88>
 4001b98:	8d61c83a 	sub	r16,r17,r21
 4001b9c:	80000e26 	beq	r16,zero,4001bd8 <___vfprintf_internal_r+0x148>
 4001ba0:	d8c02017 	ldw	r3,128(sp)
 4001ba4:	d8801f17 	ldw	r2,124(sp)
 4001ba8:	45400015 	stw	r21,0(r8)
 4001bac:	1c07883a 	add	r3,r3,r16
 4001bb0:	10800044 	addi	r2,r2,1
 4001bb4:	d8c02015 	stw	r3,128(sp)
 4001bb8:	44000115 	stw	r16,4(r8)
 4001bbc:	d8801f15 	stw	r2,124(sp)
 4001bc0:	00c001c4 	movi	r3,7
 4001bc4:	1880a916 	blt	r3,r2,4001e6c <___vfprintf_internal_r+0x3dc>
 4001bc8:	42000204 	addi	r8,r8,8
 4001bcc:	d9402f17 	ldw	r5,188(sp)
 4001bd0:	2c0b883a 	add	r5,r5,r16
 4001bd4:	d9402f15 	stw	r5,188(sp)
 4001bd8:	88800007 	ldb	r2,0(r17)
 4001bdc:	1000aa26 	beq	r2,zero,4001e88 <___vfprintf_internal_r+0x3f8>
 4001be0:	8d400044 	addi	r21,r17,1
 4001be4:	8c400047 	ldb	r17,1(r17)
 4001be8:	0021883a 	mov	r16,zero
 4001bec:	00bfffc4 	movi	r2,-1
 4001bf0:	0025883a 	mov	r18,zero
 4001bf4:	dc002905 	stb	r16,164(sp)
 4001bf8:	d8002785 	stb	zero,158(sp)
 4001bfc:	d8002b05 	stb	zero,172(sp)
 4001c00:	d8802a15 	stw	r2,168(sp)
 4001c04:	d8003115 	stw	zero,196(sp)
 4001c08:	04c01604 	movi	r19,88
 4001c0c:	05800244 	movi	r22,9
 4001c10:	9021883a 	mov	r16,r18
 4001c14:	4039883a 	mov	fp,r8
 4001c18:	ad400044 	addi	r21,r21,1
 4001c1c:	88bff804 	addi	r2,r17,-32
 4001c20:	98833236 	bltu	r19,r2,40028ec <___vfprintf_internal_r+0xe5c>
 4001c24:	100490ba 	slli	r2,r2,2
 4001c28:	00c10034 	movhi	r3,1024
 4001c2c:	18c70f04 	addi	r3,r3,7228
 4001c30:	10c5883a 	add	r2,r2,r3
 4001c34:	10800017 	ldw	r2,0(r2)
 4001c38:	1000683a 	jmp	r2
 4001c3c:	040027e4 	muli	r16,zero,159
 4001c40:	040028ec 	andhi	r16,zero,163
 4001c44:	040028ec 	andhi	r16,zero,163
 4001c48:	04002804 	movi	r16,160
 4001c4c:	040028ec 	andhi	r16,zero,163
 4001c50:	040028ec 	andhi	r16,zero,163
 4001c54:	040028ec 	andhi	r16,zero,163
 4001c58:	040028ec 	andhi	r16,zero,163
 4001c5c:	040028ec 	andhi	r16,zero,163
 4001c60:	040028ec 	andhi	r16,zero,163
 4001c64:	04001eec 	andhi	r16,zero,123
 4001c68:	040026f4 	movhi	r16,155
 4001c6c:	040028ec 	andhi	r16,zero,163
 4001c70:	04001db0 	cmpltui	r16,zero,118
 4001c74:	04001f10 	cmplti	r16,zero,124
 4001c78:	040028ec 	andhi	r16,zero,163
 4001c7c:	04001f60 	cmpeqi	r16,zero,125
 4001c80:	04001f6c 	andhi	r16,zero,125
 4001c84:	04001f6c 	andhi	r16,zero,125
 4001c88:	04001f6c 	andhi	r16,zero,125
 4001c8c:	04001f6c 	andhi	r16,zero,125
 4001c90:	04001f6c 	andhi	r16,zero,125
 4001c94:	04001f6c 	andhi	r16,zero,125
 4001c98:	04001f6c 	andhi	r16,zero,125
 4001c9c:	04001f6c 	andhi	r16,zero,125
 4001ca0:	04001f6c 	andhi	r16,zero,125
 4001ca4:	040028ec 	andhi	r16,zero,163
 4001ca8:	040028ec 	andhi	r16,zero,163
 4001cac:	040028ec 	andhi	r16,zero,163
 4001cb0:	040028ec 	andhi	r16,zero,163
 4001cb4:	040028ec 	andhi	r16,zero,163
 4001cb8:	040028ec 	andhi	r16,zero,163
 4001cbc:	040028ec 	andhi	r16,zero,163
 4001cc0:	040028ec 	andhi	r16,zero,163
 4001cc4:	040028ec 	andhi	r16,zero,163
 4001cc8:	040028ec 	andhi	r16,zero,163
 4001ccc:	04001fa8 	cmpgeui	r16,zero,126
 4001cd0:	04002070 	cmpltui	r16,zero,129
 4001cd4:	040028ec 	andhi	r16,zero,163
 4001cd8:	04002070 	cmpltui	r16,zero,129
 4001cdc:	040028ec 	andhi	r16,zero,163
 4001ce0:	040028ec 	andhi	r16,zero,163
 4001ce4:	040028ec 	andhi	r16,zero,163
 4001ce8:	040028ec 	andhi	r16,zero,163
 4001cec:	0400211c 	xori	r16,zero,132
 4001cf0:	040028ec 	andhi	r16,zero,163
 4001cf4:	040028ec 	andhi	r16,zero,163
 4001cf8:	04002128 	cmpgeui	r16,zero,132
 4001cfc:	040028ec 	andhi	r16,zero,163
 4001d00:	040028ec 	andhi	r16,zero,163
 4001d04:	040028ec 	andhi	r16,zero,163
 4001d08:	040028ec 	andhi	r16,zero,163
 4001d0c:	040028ec 	andhi	r16,zero,163
 4001d10:	040025ac 	andhi	r16,zero,150
 4001d14:	040028ec 	andhi	r16,zero,163
 4001d18:	040028ec 	andhi	r16,zero,163
 4001d1c:	04002618 	cmpnei	r16,zero,152
 4001d20:	040028ec 	andhi	r16,zero,163
 4001d24:	040028ec 	andhi	r16,zero,163
 4001d28:	040028ec 	andhi	r16,zero,163
 4001d2c:	040028ec 	andhi	r16,zero,163
 4001d30:	040028ec 	andhi	r16,zero,163
 4001d34:	040028ec 	andhi	r16,zero,163
 4001d38:	040028ec 	andhi	r16,zero,163
 4001d3c:	040028ec 	andhi	r16,zero,163
 4001d40:	040028ec 	andhi	r16,zero,163
 4001d44:	040028ec 	andhi	r16,zero,163
 4001d48:	04002890 	cmplti	r16,zero,162
 4001d4c:	04002810 	cmplti	r16,zero,160
 4001d50:	04002070 	cmpltui	r16,zero,129
 4001d54:	04002070 	cmpltui	r16,zero,129
 4001d58:	04002070 	cmpltui	r16,zero,129
 4001d5c:	04002830 	cmpltui	r16,zero,160
 4001d60:	04002810 	cmplti	r16,zero,160
 4001d64:	040028ec 	andhi	r16,zero,163
 4001d68:	040028ec 	andhi	r16,zero,163
 4001d6c:	0400283c 	xorhi	r16,zero,160
 4001d70:	040028ec 	andhi	r16,zero,163
 4001d74:	04002850 	cmplti	r16,zero,161
 4001d78:	040026d4 	movui	r16,155
 4001d7c:	04001dbc 	xorhi	r16,zero,118
 4001d80:	0400270c 	andi	r16,zero,156
 4001d84:	040028ec 	andhi	r16,zero,163
 4001d88:	04002718 	cmpnei	r16,zero,156
 4001d8c:	040028ec 	andhi	r16,zero,163
 4001d90:	0400277c 	xorhi	r16,zero,157
 4001d94:	040028ec 	andhi	r16,zero,163
 4001d98:	040028ec 	andhi	r16,zero,163
 4001d9c:	0400279c 	xori	r16,zero,158
 4001da0:	d8c03117 	ldw	r3,196(sp)
 4001da4:	d8802e15 	stw	r2,184(sp)
 4001da8:	00c7c83a 	sub	r3,zero,r3
 4001dac:	d8c03115 	stw	r3,196(sp)
 4001db0:	84000114 	ori	r16,r16,4
 4001db4:	ac400007 	ldb	r17,0(r21)
 4001db8:	003f9706 	br	4001c18 <__alt_mem_onchip_ram+0xfbf7dc18>
 4001dbc:	00800c04 	movi	r2,48
 4001dc0:	d8802705 	stb	r2,156(sp)
 4001dc4:	00801e04 	movi	r2,120
 4001dc8:	d8802745 	stb	r2,157(sp)
 4001dcc:	d9002a17 	ldw	r4,168(sp)
 4001dd0:	d8802e17 	ldw	r2,184(sp)
 4001dd4:	d8002785 	stb	zero,158(sp)
 4001dd8:	e011883a 	mov	r8,fp
 4001ddc:	10c00104 	addi	r3,r2,4
 4001de0:	14c00017 	ldw	r19,0(r2)
 4001de4:	002d883a 	mov	r22,zero
 4001de8:	80800094 	ori	r2,r16,2
 4001dec:	2002ca16 	blt	r4,zero,4002918 <___vfprintf_internal_r+0xe88>
 4001df0:	00bfdfc4 	movi	r2,-129
 4001df4:	80a4703a 	and	r18,r16,r2
 4001df8:	d8c02e15 	stw	r3,184(sp)
 4001dfc:	94800094 	ori	r18,r18,2
 4001e00:	9802b41e 	bne	r19,zero,40028d4 <___vfprintf_internal_r+0xe44>
 4001e04:	01410074 	movhi	r5,1025
 4001e08:	29462c04 	addi	r5,r5,6320
 4001e0c:	d9403915 	stw	r5,228(sp)
 4001e10:	04401e04 	movi	r17,120
 4001e14:	d8802a17 	ldw	r2,168(sp)
 4001e18:	0039883a 	mov	fp,zero
 4001e1c:	1001fa26 	beq	r2,zero,4002608 <___vfprintf_internal_r+0xb78>
 4001e20:	0027883a 	mov	r19,zero
 4001e24:	002d883a 	mov	r22,zero
 4001e28:	00021906 	br	4002690 <___vfprintf_internal_r+0xc00>
 4001e2c:	d9002d17 	ldw	r4,180(sp)
 4001e30:	b80b883a 	mov	r5,r23
 4001e34:	4003e440 	call	4003e44 <__swsetup_r>
 4001e38:	1005dc1e 	bne	r2,zero,40035ac <___vfprintf_internal_r+0x1b1c>
 4001e3c:	b880030b 	ldhu	r2,12(r23)
 4001e40:	00c00284 	movi	r3,10
 4001e44:	1080068c 	andi	r2,r2,26
 4001e48:	10ff3a1e 	bne	r2,r3,4001b34 <__alt_mem_onchip_ram+0xfbf7db34>
 4001e4c:	b880038f 	ldh	r2,14(r23)
 4001e50:	103f3816 	blt	r2,zero,4001b34 <__alt_mem_onchip_ram+0xfbf7db34>
 4001e54:	d9c02e17 	ldw	r7,184(sp)
 4001e58:	d9002d17 	ldw	r4,180(sp)
 4001e5c:	a80d883a 	mov	r6,r21
 4001e60:	b80b883a 	mov	r5,r23
 4001e64:	4003d880 	call	4003d88 <__sbprintf>
 4001e68:	00001106 	br	4001eb0 <___vfprintf_internal_r+0x420>
 4001e6c:	d9002d17 	ldw	r4,180(sp)
 4001e70:	d9801e04 	addi	r6,sp,120
 4001e74:	b80b883a 	mov	r5,r23
 4001e78:	40091280 	call	4009128 <__sprint_r>
 4001e7c:	1000081e 	bne	r2,zero,4001ea0 <___vfprintf_internal_r+0x410>
 4001e80:	da000404 	addi	r8,sp,16
 4001e84:	003f5106 	br	4001bcc <__alt_mem_onchip_ram+0xfbf7dbcc>
 4001e88:	d8802017 	ldw	r2,128(sp)
 4001e8c:	10000426 	beq	r2,zero,4001ea0 <___vfprintf_internal_r+0x410>
 4001e90:	d9002d17 	ldw	r4,180(sp)
 4001e94:	d9801e04 	addi	r6,sp,120
 4001e98:	b80b883a 	mov	r5,r23
 4001e9c:	40091280 	call	4009128 <__sprint_r>
 4001ea0:	b880030b 	ldhu	r2,12(r23)
 4001ea4:	1080100c 	andi	r2,r2,64
 4001ea8:	1005c01e 	bne	r2,zero,40035ac <___vfprintf_internal_r+0x1b1c>
 4001eac:	d8802f17 	ldw	r2,188(sp)
 4001eb0:	dfc04717 	ldw	ra,284(sp)
 4001eb4:	df004617 	ldw	fp,280(sp)
 4001eb8:	ddc04517 	ldw	r23,276(sp)
 4001ebc:	dd804417 	ldw	r22,272(sp)
 4001ec0:	dd404317 	ldw	r21,268(sp)
 4001ec4:	dd004217 	ldw	r20,264(sp)
 4001ec8:	dcc04117 	ldw	r19,260(sp)
 4001ecc:	dc804017 	ldw	r18,256(sp)
 4001ed0:	dc403f17 	ldw	r17,252(sp)
 4001ed4:	dc003e17 	ldw	r16,248(sp)
 4001ed8:	dec04804 	addi	sp,sp,288
 4001edc:	f800283a 	ret
 4001ee0:	d9002d17 	ldw	r4,180(sp)
 4001ee4:	4005e500 	call	4005e50 <__sinit>
 4001ee8:	003f0206 	br	4001af4 <__alt_mem_onchip_ram+0xfbf7daf4>
 4001eec:	d9002e17 	ldw	r4,184(sp)
 4001ef0:	d9402e17 	ldw	r5,184(sp)
 4001ef4:	21000017 	ldw	r4,0(r4)
 4001ef8:	28800104 	addi	r2,r5,4
 4001efc:	d9003115 	stw	r4,196(sp)
 4001f00:	203fa716 	blt	r4,zero,4001da0 <__alt_mem_onchip_ram+0xfbf7dda0>
 4001f04:	d8802e15 	stw	r2,184(sp)
 4001f08:	ac400007 	ldb	r17,0(r21)
 4001f0c:	003f4206 	br	4001c18 <__alt_mem_onchip_ram+0xfbf7dc18>
 4001f10:	ac400007 	ldb	r17,0(r21)
 4001f14:	01000a84 	movi	r4,42
 4001f18:	a8c00044 	addi	r3,r21,1
 4001f1c:	89075826 	beq	r17,r4,4003c80 <___vfprintf_internal_r+0x21f0>
 4001f20:	8cbff404 	addi	r18,r17,-48
 4001f24:	b486ae36 	bltu	r22,r18,40039e0 <___vfprintf_internal_r+0x1f50>
 4001f28:	0009883a 	mov	r4,zero
 4001f2c:	1823883a 	mov	r17,r3
 4001f30:	01400284 	movi	r5,10
 4001f34:	40017480 	call	4001748 <__mulsi3>
 4001f38:	88c00007 	ldb	r3,0(r17)
 4001f3c:	1489883a 	add	r4,r2,r18
 4001f40:	8d400044 	addi	r21,r17,1
 4001f44:	1cbff404 	addi	r18,r3,-48
 4001f48:	a823883a 	mov	r17,r21
 4001f4c:	b4bff82e 	bgeu	r22,r18,4001f30 <__alt_mem_onchip_ram+0xfbf7df30>
 4001f50:	1823883a 	mov	r17,r3
 4001f54:	2005f616 	blt	r4,zero,4003730 <___vfprintf_internal_r+0x1ca0>
 4001f58:	d9002a15 	stw	r4,168(sp)
 4001f5c:	003f2f06 	br	4001c1c <__alt_mem_onchip_ram+0xfbf7dc1c>
 4001f60:	84002014 	ori	r16,r16,128
 4001f64:	ac400007 	ldb	r17,0(r21)
 4001f68:	003f2b06 	br	4001c18 <__alt_mem_onchip_ram+0xfbf7dc18>
 4001f6c:	8cbff404 	addi	r18,r17,-48
 4001f70:	d8003115 	stw	zero,196(sp)
 4001f74:	0009883a 	mov	r4,zero
 4001f78:	a823883a 	mov	r17,r21
 4001f7c:	01400284 	movi	r5,10
 4001f80:	40017480 	call	4001748 <__mulsi3>
 4001f84:	88c00007 	ldb	r3,0(r17)
 4001f88:	9089883a 	add	r4,r18,r2
 4001f8c:	ad400044 	addi	r21,r21,1
 4001f90:	1cbff404 	addi	r18,r3,-48
 4001f94:	a823883a 	mov	r17,r21
 4001f98:	b4bff82e 	bgeu	r22,r18,4001f7c <__alt_mem_onchip_ram+0xfbf7df7c>
 4001f9c:	1823883a 	mov	r17,r3
 4001fa0:	d9003115 	stw	r4,196(sp)
 4001fa4:	003f1d06 	br	4001c1c <__alt_mem_onchip_ram+0xfbf7dc1c>
 4001fa8:	8025883a 	mov	r18,r16
 4001fac:	dc002903 	ldbu	r16,164(sp)
 4001fb0:	e011883a 	mov	r8,fp
 4001fb4:	84003fcc 	andi	r16,r16,255
 4001fb8:	8007531e 	bne	r16,zero,4003d08 <___vfprintf_internal_r+0x2278>
 4001fbc:	94800414 	ori	r18,r18,16
 4001fc0:	9080080c 	andi	r2,r18,32
 4001fc4:	1003a326 	beq	r2,zero,4002e54 <___vfprintf_internal_r+0x13c4>
 4001fc8:	d9002e17 	ldw	r4,184(sp)
 4001fcc:	20800117 	ldw	r2,4(r4)
 4001fd0:	24c00017 	ldw	r19,0(r4)
 4001fd4:	21000204 	addi	r4,r4,8
 4001fd8:	d9002e15 	stw	r4,184(sp)
 4001fdc:	102d883a 	mov	r22,r2
 4001fe0:	10047316 	blt	r2,zero,40031b0 <___vfprintf_internal_r+0x1720>
 4001fe4:	d9002a17 	ldw	r4,168(sp)
 4001fe8:	df002783 	ldbu	fp,158(sp)
 4001fec:	2003e416 	blt	r4,zero,4002f80 <___vfprintf_internal_r+0x14f0>
 4001ff0:	00ffdfc4 	movi	r3,-129
 4001ff4:	9d84b03a 	or	r2,r19,r22
 4001ff8:	90e4703a 	and	r18,r18,r3
 4001ffc:	10018026 	beq	r2,zero,4002600 <___vfprintf_internal_r+0xb70>
 4002000:	b003ab26 	beq	r22,zero,4002eb0 <___vfprintf_internal_r+0x1420>
 4002004:	dc402915 	stw	r17,164(sp)
 4002008:	dc001e04 	addi	r16,sp,120
 400200c:	b023883a 	mov	r17,r22
 4002010:	402d883a 	mov	r22,r8
 4002014:	9809883a 	mov	r4,r19
 4002018:	880b883a 	mov	r5,r17
 400201c:	01800284 	movi	r6,10
 4002020:	000f883a 	mov	r7,zero
 4002024:	400b66c0 	call	400b66c <__umoddi3>
 4002028:	10800c04 	addi	r2,r2,48
 400202c:	843fffc4 	addi	r16,r16,-1
 4002030:	9809883a 	mov	r4,r19
 4002034:	880b883a 	mov	r5,r17
 4002038:	80800005 	stb	r2,0(r16)
 400203c:	01800284 	movi	r6,10
 4002040:	000f883a 	mov	r7,zero
 4002044:	400b0700 	call	400b070 <__udivdi3>
 4002048:	1027883a 	mov	r19,r2
 400204c:	10c4b03a 	or	r2,r2,r3
 4002050:	1823883a 	mov	r17,r3
 4002054:	103fef1e 	bne	r2,zero,4002014 <__alt_mem_onchip_ram+0xfbf7e014>
 4002058:	d8c02817 	ldw	r3,160(sp)
 400205c:	dc402917 	ldw	r17,164(sp)
 4002060:	b011883a 	mov	r8,r22
 4002064:	1c07c83a 	sub	r3,r3,r16
 4002068:	d8c02b15 	stw	r3,172(sp)
 400206c:	00005f06 	br	40021ec <___vfprintf_internal_r+0x75c>
 4002070:	8025883a 	mov	r18,r16
 4002074:	dc002903 	ldbu	r16,164(sp)
 4002078:	e011883a 	mov	r8,fp
 400207c:	84003fcc 	andi	r16,r16,255
 4002080:	80071e1e 	bne	r16,zero,4003cfc <___vfprintf_internal_r+0x226c>
 4002084:	9080020c 	andi	r2,r18,8
 4002088:	1004af26 	beq	r2,zero,4003348 <___vfprintf_internal_r+0x18b8>
 400208c:	d9002e17 	ldw	r4,184(sp)
 4002090:	d9402e17 	ldw	r5,184(sp)
 4002094:	d8802e17 	ldw	r2,184(sp)
 4002098:	21000017 	ldw	r4,0(r4)
 400209c:	29400117 	ldw	r5,4(r5)
 40020a0:	10800204 	addi	r2,r2,8
 40020a4:	d9003615 	stw	r4,216(sp)
 40020a8:	d9403815 	stw	r5,224(sp)
 40020ac:	d8802e15 	stw	r2,184(sp)
 40020b0:	d9003617 	ldw	r4,216(sp)
 40020b4:	d9403817 	ldw	r5,224(sp)
 40020b8:	da003d15 	stw	r8,244(sp)
 40020bc:	04000044 	movi	r16,1
 40020c0:	4008d4c0 	call	4008d4c <__fpclassifyd>
 40020c4:	da003d17 	ldw	r8,244(sp)
 40020c8:	1404441e 	bne	r2,r16,40031dc <___vfprintf_internal_r+0x174c>
 40020cc:	d9003617 	ldw	r4,216(sp)
 40020d0:	d9403817 	ldw	r5,224(sp)
 40020d4:	000d883a 	mov	r6,zero
 40020d8:	000f883a 	mov	r7,zero
 40020dc:	400d1c40 	call	400d1c4 <__ledf2>
 40020e0:	da003d17 	ldw	r8,244(sp)
 40020e4:	1005e316 	blt	r2,zero,4003874 <___vfprintf_internal_r+0x1de4>
 40020e8:	df002783 	ldbu	fp,158(sp)
 40020ec:	008011c4 	movi	r2,71
 40020f0:	1445580e 	bge	r2,r17,4003654 <___vfprintf_internal_r+0x1bc4>
 40020f4:	04010074 	movhi	r16,1025
 40020f8:	84062404 	addi	r16,r16,6288
 40020fc:	00c000c4 	movi	r3,3
 4002100:	00bfdfc4 	movi	r2,-129
 4002104:	d8c02915 	stw	r3,164(sp)
 4002108:	90a4703a 	and	r18,r18,r2
 400210c:	d8c02b15 	stw	r3,172(sp)
 4002110:	d8002a15 	stw	zero,168(sp)
 4002114:	d8003215 	stw	zero,200(sp)
 4002118:	00003a06 	br	4002204 <___vfprintf_internal_r+0x774>
 400211c:	84000214 	ori	r16,r16,8
 4002120:	ac400007 	ldb	r17,0(r21)
 4002124:	003ebc06 	br	4001c18 <__alt_mem_onchip_ram+0xfbf7dc18>
 4002128:	8025883a 	mov	r18,r16
 400212c:	dc002903 	ldbu	r16,164(sp)
 4002130:	e011883a 	mov	r8,fp
 4002134:	84003fcc 	andi	r16,r16,255
 4002138:	8007001e 	bne	r16,zero,4003d3c <___vfprintf_internal_r+0x22ac>
 400213c:	94800414 	ori	r18,r18,16
 4002140:	9080080c 	andi	r2,r18,32
 4002144:	1002fa26 	beq	r2,zero,4002d30 <___vfprintf_internal_r+0x12a0>
 4002148:	d9002e17 	ldw	r4,184(sp)
 400214c:	d9402a17 	ldw	r5,168(sp)
 4002150:	d8002785 	stb	zero,158(sp)
 4002154:	20800204 	addi	r2,r4,8
 4002158:	24c00017 	ldw	r19,0(r4)
 400215c:	25800117 	ldw	r22,4(r4)
 4002160:	2804b116 	blt	r5,zero,4003428 <___vfprintf_internal_r+0x1998>
 4002164:	013fdfc4 	movi	r4,-129
 4002168:	9d86b03a 	or	r3,r19,r22
 400216c:	d8802e15 	stw	r2,184(sp)
 4002170:	9124703a 	and	r18,r18,r4
 4002174:	1802fb1e 	bne	r3,zero,4002d64 <___vfprintf_internal_r+0x12d4>
 4002178:	d8c02a17 	ldw	r3,168(sp)
 400217c:	0039883a 	mov	fp,zero
 4002180:	1805e526 	beq	r3,zero,4003918 <___vfprintf_internal_r+0x1e88>
 4002184:	0027883a 	mov	r19,zero
 4002188:	002d883a 	mov	r22,zero
 400218c:	dc001e04 	addi	r16,sp,120
 4002190:	9806d0fa 	srli	r3,r19,3
 4002194:	b008977a 	slli	r4,r22,29
 4002198:	b02cd0fa 	srli	r22,r22,3
 400219c:	9cc001cc 	andi	r19,r19,7
 40021a0:	98800c04 	addi	r2,r19,48
 40021a4:	843fffc4 	addi	r16,r16,-1
 40021a8:	20e6b03a 	or	r19,r4,r3
 40021ac:	80800005 	stb	r2,0(r16)
 40021b0:	9d86b03a 	or	r3,r19,r22
 40021b4:	183ff61e 	bne	r3,zero,4002190 <__alt_mem_onchip_ram+0xfbf7e190>
 40021b8:	90c0004c 	andi	r3,r18,1
 40021bc:	18014126 	beq	r3,zero,40026c4 <___vfprintf_internal_r+0xc34>
 40021c0:	10803fcc 	andi	r2,r2,255
 40021c4:	1080201c 	xori	r2,r2,128
 40021c8:	10bfe004 	addi	r2,r2,-128
 40021cc:	00c00c04 	movi	r3,48
 40021d0:	10c13c26 	beq	r2,r3,40026c4 <___vfprintf_internal_r+0xc34>
 40021d4:	80ffffc5 	stb	r3,-1(r16)
 40021d8:	d8c02817 	ldw	r3,160(sp)
 40021dc:	80bfffc4 	addi	r2,r16,-1
 40021e0:	1021883a 	mov	r16,r2
 40021e4:	1887c83a 	sub	r3,r3,r2
 40021e8:	d8c02b15 	stw	r3,172(sp)
 40021ec:	d8802b17 	ldw	r2,172(sp)
 40021f0:	d9002a17 	ldw	r4,168(sp)
 40021f4:	1100010e 	bge	r2,r4,40021fc <___vfprintf_internal_r+0x76c>
 40021f8:	2005883a 	mov	r2,r4
 40021fc:	d8802915 	stw	r2,164(sp)
 4002200:	d8003215 	stw	zero,200(sp)
 4002204:	e7003fcc 	andi	fp,fp,255
 4002208:	e700201c 	xori	fp,fp,128
 400220c:	e73fe004 	addi	fp,fp,-128
 4002210:	e0000326 	beq	fp,zero,4002220 <___vfprintf_internal_r+0x790>
 4002214:	d8c02917 	ldw	r3,164(sp)
 4002218:	18c00044 	addi	r3,r3,1
 400221c:	d8c02915 	stw	r3,164(sp)
 4002220:	90c0008c 	andi	r3,r18,2
 4002224:	d8c02c15 	stw	r3,176(sp)
 4002228:	18000326 	beq	r3,zero,4002238 <___vfprintf_internal_r+0x7a8>
 400222c:	d8c02917 	ldw	r3,164(sp)
 4002230:	18c00084 	addi	r3,r3,2
 4002234:	d8c02915 	stw	r3,164(sp)
 4002238:	90c0210c 	andi	r3,r18,132
 400223c:	d8c03015 	stw	r3,192(sp)
 4002240:	1801c51e 	bne	r3,zero,4002958 <___vfprintf_internal_r+0xec8>
 4002244:	d9003117 	ldw	r4,196(sp)
 4002248:	d8c02917 	ldw	r3,164(sp)
 400224c:	20e7c83a 	sub	r19,r4,r3
 4002250:	04c1c10e 	bge	zero,r19,4002958 <___vfprintf_internal_r+0xec8>
 4002254:	02400404 	movi	r9,16
 4002258:	d8c02017 	ldw	r3,128(sp)
 400225c:	d8801f17 	ldw	r2,124(sp)
 4002260:	4cc52f0e 	bge	r9,r19,4003720 <___vfprintf_internal_r+0x1c90>
 4002264:	01410074 	movhi	r5,1025
 4002268:	29463784 	addi	r5,r5,6366
 400226c:	dc403b15 	stw	r17,236(sp)
 4002270:	d9403515 	stw	r5,212(sp)
 4002274:	9823883a 	mov	r17,r19
 4002278:	482d883a 	mov	r22,r9
 400227c:	9027883a 	mov	r19,r18
 4002280:	070001c4 	movi	fp,7
 4002284:	8025883a 	mov	r18,r16
 4002288:	dc002d17 	ldw	r16,180(sp)
 400228c:	00000306 	br	400229c <___vfprintf_internal_r+0x80c>
 4002290:	8c7ffc04 	addi	r17,r17,-16
 4002294:	42000204 	addi	r8,r8,8
 4002298:	b440130e 	bge	r22,r17,40022e8 <___vfprintf_internal_r+0x858>
 400229c:	01010074 	movhi	r4,1025
 40022a0:	18c00404 	addi	r3,r3,16
 40022a4:	10800044 	addi	r2,r2,1
 40022a8:	21063784 	addi	r4,r4,6366
 40022ac:	41000015 	stw	r4,0(r8)
 40022b0:	45800115 	stw	r22,4(r8)
 40022b4:	d8c02015 	stw	r3,128(sp)
 40022b8:	d8801f15 	stw	r2,124(sp)
 40022bc:	e0bff40e 	bge	fp,r2,4002290 <__alt_mem_onchip_ram+0xfbf7e290>
 40022c0:	d9801e04 	addi	r6,sp,120
 40022c4:	b80b883a 	mov	r5,r23
 40022c8:	8009883a 	mov	r4,r16
 40022cc:	40091280 	call	4009128 <__sprint_r>
 40022d0:	103ef31e 	bne	r2,zero,4001ea0 <__alt_mem_onchip_ram+0xfbf7dea0>
 40022d4:	8c7ffc04 	addi	r17,r17,-16
 40022d8:	d8c02017 	ldw	r3,128(sp)
 40022dc:	d8801f17 	ldw	r2,124(sp)
 40022e0:	da000404 	addi	r8,sp,16
 40022e4:	b47fed16 	blt	r22,r17,400229c <__alt_mem_onchip_ram+0xfbf7e29c>
 40022e8:	9021883a 	mov	r16,r18
 40022ec:	9825883a 	mov	r18,r19
 40022f0:	8827883a 	mov	r19,r17
 40022f4:	dc403b17 	ldw	r17,236(sp)
 40022f8:	d9403517 	ldw	r5,212(sp)
 40022fc:	98c7883a 	add	r3,r19,r3
 4002300:	10800044 	addi	r2,r2,1
 4002304:	41400015 	stw	r5,0(r8)
 4002308:	44c00115 	stw	r19,4(r8)
 400230c:	d8c02015 	stw	r3,128(sp)
 4002310:	d8801f15 	stw	r2,124(sp)
 4002314:	010001c4 	movi	r4,7
 4002318:	2082c516 	blt	r4,r2,4002e30 <___vfprintf_internal_r+0x13a0>
 400231c:	df002787 	ldb	fp,158(sp)
 4002320:	42000204 	addi	r8,r8,8
 4002324:	e0000c26 	beq	fp,zero,4002358 <___vfprintf_internal_r+0x8c8>
 4002328:	d8801f17 	ldw	r2,124(sp)
 400232c:	d9002784 	addi	r4,sp,158
 4002330:	18c00044 	addi	r3,r3,1
 4002334:	10800044 	addi	r2,r2,1
 4002338:	41000015 	stw	r4,0(r8)
 400233c:	01000044 	movi	r4,1
 4002340:	41000115 	stw	r4,4(r8)
 4002344:	d8c02015 	stw	r3,128(sp)
 4002348:	d8801f15 	stw	r2,124(sp)
 400234c:	010001c4 	movi	r4,7
 4002350:	20825e16 	blt	r4,r2,4002ccc <___vfprintf_internal_r+0x123c>
 4002354:	42000204 	addi	r8,r8,8
 4002358:	d8802c17 	ldw	r2,176(sp)
 400235c:	10000c26 	beq	r2,zero,4002390 <___vfprintf_internal_r+0x900>
 4002360:	d8801f17 	ldw	r2,124(sp)
 4002364:	d9002704 	addi	r4,sp,156
 4002368:	18c00084 	addi	r3,r3,2
 400236c:	10800044 	addi	r2,r2,1
 4002370:	41000015 	stw	r4,0(r8)
 4002374:	01000084 	movi	r4,2
 4002378:	41000115 	stw	r4,4(r8)
 400237c:	d8c02015 	stw	r3,128(sp)
 4002380:	d8801f15 	stw	r2,124(sp)
 4002384:	010001c4 	movi	r4,7
 4002388:	20825816 	blt	r4,r2,4002cec <___vfprintf_internal_r+0x125c>
 400238c:	42000204 	addi	r8,r8,8
 4002390:	d9003017 	ldw	r4,192(sp)
 4002394:	00802004 	movi	r2,128
 4002398:	2081bb26 	beq	r4,r2,4002a88 <___vfprintf_internal_r+0xff8>
 400239c:	d9402a17 	ldw	r5,168(sp)
 40023a0:	d8802b17 	ldw	r2,172(sp)
 40023a4:	28adc83a 	sub	r22,r5,r2
 40023a8:	0580310e 	bge	zero,r22,4002470 <___vfprintf_internal_r+0x9e0>
 40023ac:	07000404 	movi	fp,16
 40023b0:	d8801f17 	ldw	r2,124(sp)
 40023b4:	e584360e 	bge	fp,r22,4003490 <___vfprintf_internal_r+0x1a00>
 40023b8:	01410074 	movhi	r5,1025
 40023bc:	29463384 	addi	r5,r5,6350
 40023c0:	dc402a15 	stw	r17,168(sp)
 40023c4:	d9402c15 	stw	r5,176(sp)
 40023c8:	b023883a 	mov	r17,r22
 40023cc:	04c001c4 	movi	r19,7
 40023d0:	a82d883a 	mov	r22,r21
 40023d4:	902b883a 	mov	r21,r18
 40023d8:	8025883a 	mov	r18,r16
 40023dc:	dc002d17 	ldw	r16,180(sp)
 40023e0:	00000306 	br	40023f0 <___vfprintf_internal_r+0x960>
 40023e4:	8c7ffc04 	addi	r17,r17,-16
 40023e8:	42000204 	addi	r8,r8,8
 40023ec:	e440110e 	bge	fp,r17,4002434 <___vfprintf_internal_r+0x9a4>
 40023f0:	18c00404 	addi	r3,r3,16
 40023f4:	10800044 	addi	r2,r2,1
 40023f8:	45000015 	stw	r20,0(r8)
 40023fc:	47000115 	stw	fp,4(r8)
 4002400:	d8c02015 	stw	r3,128(sp)
 4002404:	d8801f15 	stw	r2,124(sp)
 4002408:	98bff60e 	bge	r19,r2,40023e4 <__alt_mem_onchip_ram+0xfbf7e3e4>
 400240c:	d9801e04 	addi	r6,sp,120
 4002410:	b80b883a 	mov	r5,r23
 4002414:	8009883a 	mov	r4,r16
 4002418:	40091280 	call	4009128 <__sprint_r>
 400241c:	103ea01e 	bne	r2,zero,4001ea0 <__alt_mem_onchip_ram+0xfbf7dea0>
 4002420:	8c7ffc04 	addi	r17,r17,-16
 4002424:	d8c02017 	ldw	r3,128(sp)
 4002428:	d8801f17 	ldw	r2,124(sp)
 400242c:	da000404 	addi	r8,sp,16
 4002430:	e47fef16 	blt	fp,r17,40023f0 <__alt_mem_onchip_ram+0xfbf7e3f0>
 4002434:	9021883a 	mov	r16,r18
 4002438:	a825883a 	mov	r18,r21
 400243c:	b02b883a 	mov	r21,r22
 4002440:	882d883a 	mov	r22,r17
 4002444:	dc402a17 	ldw	r17,168(sp)
 4002448:	d9002c17 	ldw	r4,176(sp)
 400244c:	1d87883a 	add	r3,r3,r22
 4002450:	10800044 	addi	r2,r2,1
 4002454:	41000015 	stw	r4,0(r8)
 4002458:	45800115 	stw	r22,4(r8)
 400245c:	d8c02015 	stw	r3,128(sp)
 4002460:	d8801f15 	stw	r2,124(sp)
 4002464:	010001c4 	movi	r4,7
 4002468:	20821016 	blt	r4,r2,4002cac <___vfprintf_internal_r+0x121c>
 400246c:	42000204 	addi	r8,r8,8
 4002470:	9080400c 	andi	r2,r18,256
 4002474:	10013a1e 	bne	r2,zero,4002960 <___vfprintf_internal_r+0xed0>
 4002478:	d9402b17 	ldw	r5,172(sp)
 400247c:	d8801f17 	ldw	r2,124(sp)
 4002480:	44000015 	stw	r16,0(r8)
 4002484:	1947883a 	add	r3,r3,r5
 4002488:	10800044 	addi	r2,r2,1
 400248c:	41400115 	stw	r5,4(r8)
 4002490:	d8c02015 	stw	r3,128(sp)
 4002494:	d8801f15 	stw	r2,124(sp)
 4002498:	010001c4 	movi	r4,7
 400249c:	2081f516 	blt	r4,r2,4002c74 <___vfprintf_internal_r+0x11e4>
 40024a0:	42000204 	addi	r8,r8,8
 40024a4:	9480010c 	andi	r18,r18,4
 40024a8:	90003226 	beq	r18,zero,4002574 <___vfprintf_internal_r+0xae4>
 40024ac:	d9403117 	ldw	r5,196(sp)
 40024b0:	d8802917 	ldw	r2,164(sp)
 40024b4:	28a1c83a 	sub	r16,r5,r2
 40024b8:	04002e0e 	bge	zero,r16,4002574 <___vfprintf_internal_r+0xae4>
 40024bc:	04400404 	movi	r17,16
 40024c0:	d8801f17 	ldw	r2,124(sp)
 40024c4:	8c04c40e 	bge	r17,r16,40037d8 <___vfprintf_internal_r+0x1d48>
 40024c8:	01410074 	movhi	r5,1025
 40024cc:	29463784 	addi	r5,r5,6366
 40024d0:	d9403515 	stw	r5,212(sp)
 40024d4:	048001c4 	movi	r18,7
 40024d8:	dcc02d17 	ldw	r19,180(sp)
 40024dc:	00000306 	br	40024ec <___vfprintf_internal_r+0xa5c>
 40024e0:	843ffc04 	addi	r16,r16,-16
 40024e4:	42000204 	addi	r8,r8,8
 40024e8:	8c00130e 	bge	r17,r16,4002538 <___vfprintf_internal_r+0xaa8>
 40024ec:	01010074 	movhi	r4,1025
 40024f0:	18c00404 	addi	r3,r3,16
 40024f4:	10800044 	addi	r2,r2,1
 40024f8:	21063784 	addi	r4,r4,6366
 40024fc:	41000015 	stw	r4,0(r8)
 4002500:	44400115 	stw	r17,4(r8)
 4002504:	d8c02015 	stw	r3,128(sp)
 4002508:	d8801f15 	stw	r2,124(sp)
 400250c:	90bff40e 	bge	r18,r2,40024e0 <__alt_mem_onchip_ram+0xfbf7e4e0>
 4002510:	d9801e04 	addi	r6,sp,120
 4002514:	b80b883a 	mov	r5,r23
 4002518:	9809883a 	mov	r4,r19
 400251c:	40091280 	call	4009128 <__sprint_r>
 4002520:	103e5f1e 	bne	r2,zero,4001ea0 <__alt_mem_onchip_ram+0xfbf7dea0>
 4002524:	843ffc04 	addi	r16,r16,-16
 4002528:	d8c02017 	ldw	r3,128(sp)
 400252c:	d8801f17 	ldw	r2,124(sp)
 4002530:	da000404 	addi	r8,sp,16
 4002534:	8c3fed16 	blt	r17,r16,40024ec <__alt_mem_onchip_ram+0xfbf7e4ec>
 4002538:	d9403517 	ldw	r5,212(sp)
 400253c:	1c07883a 	add	r3,r3,r16
 4002540:	10800044 	addi	r2,r2,1
 4002544:	41400015 	stw	r5,0(r8)
 4002548:	44000115 	stw	r16,4(r8)
 400254c:	d8c02015 	stw	r3,128(sp)
 4002550:	d8801f15 	stw	r2,124(sp)
 4002554:	010001c4 	movi	r4,7
 4002558:	2080060e 	bge	r4,r2,4002574 <___vfprintf_internal_r+0xae4>
 400255c:	d9002d17 	ldw	r4,180(sp)
 4002560:	d9801e04 	addi	r6,sp,120
 4002564:	b80b883a 	mov	r5,r23
 4002568:	40091280 	call	4009128 <__sprint_r>
 400256c:	103e4c1e 	bne	r2,zero,4001ea0 <__alt_mem_onchip_ram+0xfbf7dea0>
 4002570:	d8c02017 	ldw	r3,128(sp)
 4002574:	d8803117 	ldw	r2,196(sp)
 4002578:	d9002917 	ldw	r4,164(sp)
 400257c:	1100010e 	bge	r2,r4,4002584 <___vfprintf_internal_r+0xaf4>
 4002580:	2005883a 	mov	r2,r4
 4002584:	d9402f17 	ldw	r5,188(sp)
 4002588:	288b883a 	add	r5,r5,r2
 400258c:	d9402f15 	stw	r5,188(sp)
 4002590:	1801c01e 	bne	r3,zero,4002c94 <___vfprintf_internal_r+0x1204>
 4002594:	a8800007 	ldb	r2,0(r21)
 4002598:	d8001f15 	stw	zero,124(sp)
 400259c:	da000404 	addi	r8,sp,16
 40025a0:	103d751e 	bne	r2,zero,4001b78 <__alt_mem_onchip_ram+0xfbf7db78>
 40025a4:	a823883a 	mov	r17,r21
 40025a8:	003d8b06 	br	4001bd8 <__alt_mem_onchip_ram+0xfbf7dbd8>
 40025ac:	8025883a 	mov	r18,r16
 40025b0:	dc002903 	ldbu	r16,164(sp)
 40025b4:	e011883a 	mov	r8,fp
 40025b8:	84003fcc 	andi	r16,r16,255
 40025bc:	8005e51e 	bne	r16,zero,4003d54 <___vfprintf_internal_r+0x22c4>
 40025c0:	94800414 	ori	r18,r18,16
 40025c4:	9080080c 	andi	r2,r18,32
 40025c8:	10022b26 	beq	r2,zero,4002e78 <___vfprintf_internal_r+0x13e8>
 40025cc:	d9002e17 	ldw	r4,184(sp)
 40025d0:	d9402a17 	ldw	r5,168(sp)
 40025d4:	d8002785 	stb	zero,158(sp)
 40025d8:	20c00204 	addi	r3,r4,8
 40025dc:	24c00017 	ldw	r19,0(r4)
 40025e0:	25800117 	ldw	r22,4(r4)
 40025e4:	28042e16 	blt	r5,zero,40036a0 <___vfprintf_internal_r+0x1c10>
 40025e8:	013fdfc4 	movi	r4,-129
 40025ec:	9d84b03a 	or	r2,r19,r22
 40025f0:	d8c02e15 	stw	r3,184(sp)
 40025f4:	9124703a 	and	r18,r18,r4
 40025f8:	0039883a 	mov	fp,zero
 40025fc:	103e801e 	bne	r2,zero,4002000 <__alt_mem_onchip_ram+0xfbf7e000>
 4002600:	d9002a17 	ldw	r4,168(sp)
 4002604:	2002e01e 	bne	r4,zero,4003188 <___vfprintf_internal_r+0x16f8>
 4002608:	d8002a15 	stw	zero,168(sp)
 400260c:	d8002b15 	stw	zero,172(sp)
 4002610:	dc001e04 	addi	r16,sp,120
 4002614:	003ef506 	br	40021ec <__alt_mem_onchip_ram+0xfbf7e1ec>
 4002618:	8025883a 	mov	r18,r16
 400261c:	dc002903 	ldbu	r16,164(sp)
 4002620:	e011883a 	mov	r8,fp
 4002624:	84003fcc 	andi	r16,r16,255
 4002628:	8005ba1e 	bne	r16,zero,4003d14 <___vfprintf_internal_r+0x2284>
 400262c:	01010074 	movhi	r4,1025
 4002630:	21062704 	addi	r4,r4,6300
 4002634:	d9003915 	stw	r4,228(sp)
 4002638:	9080080c 	andi	r2,r18,32
 400263c:	10006126 	beq	r2,zero,40027c4 <___vfprintf_internal_r+0xd34>
 4002640:	d9402e17 	ldw	r5,184(sp)
 4002644:	2cc00017 	ldw	r19,0(r5)
 4002648:	2d800117 	ldw	r22,4(r5)
 400264c:	29400204 	addi	r5,r5,8
 4002650:	d9402e15 	stw	r5,184(sp)
 4002654:	9080004c 	andi	r2,r18,1
 4002658:	1001ac26 	beq	r2,zero,4002d0c <___vfprintf_internal_r+0x127c>
 400265c:	9d84b03a 	or	r2,r19,r22
 4002660:	10038526 	beq	r2,zero,4003478 <___vfprintf_internal_r+0x19e8>
 4002664:	d8c02a17 	ldw	r3,168(sp)
 4002668:	00800c04 	movi	r2,48
 400266c:	d8802705 	stb	r2,156(sp)
 4002670:	dc402745 	stb	r17,157(sp)
 4002674:	d8002785 	stb	zero,158(sp)
 4002678:	90800094 	ori	r2,r18,2
 400267c:	18047916 	blt	r3,zero,4003864 <___vfprintf_internal_r+0x1dd4>
 4002680:	00bfdfc4 	movi	r2,-129
 4002684:	90a4703a 	and	r18,r18,r2
 4002688:	94800094 	ori	r18,r18,2
 400268c:	0039883a 	mov	fp,zero
 4002690:	d9003917 	ldw	r4,228(sp)
 4002694:	dc001e04 	addi	r16,sp,120
 4002698:	988003cc 	andi	r2,r19,15
 400269c:	b006973a 	slli	r3,r22,28
 40026a0:	2085883a 	add	r2,r4,r2
 40026a4:	9826d13a 	srli	r19,r19,4
 40026a8:	10800003 	ldbu	r2,0(r2)
 40026ac:	b02cd13a 	srli	r22,r22,4
 40026b0:	843fffc4 	addi	r16,r16,-1
 40026b4:	1ce6b03a 	or	r19,r3,r19
 40026b8:	80800005 	stb	r2,0(r16)
 40026bc:	9d84b03a 	or	r2,r19,r22
 40026c0:	103ff51e 	bne	r2,zero,4002698 <__alt_mem_onchip_ram+0xfbf7e698>
 40026c4:	d8c02817 	ldw	r3,160(sp)
 40026c8:	1c07c83a 	sub	r3,r3,r16
 40026cc:	d8c02b15 	stw	r3,172(sp)
 40026d0:	003ec606 	br	40021ec <__alt_mem_onchip_ram+0xfbf7e1ec>
 40026d4:	8025883a 	mov	r18,r16
 40026d8:	dc002903 	ldbu	r16,164(sp)
 40026dc:	e011883a 	mov	r8,fp
 40026e0:	84003fcc 	andi	r16,r16,255
 40026e4:	803e9626 	beq	r16,zero,4002140 <__alt_mem_onchip_ram+0xfbf7e140>
 40026e8:	d8c02b03 	ldbu	r3,172(sp)
 40026ec:	d8c02785 	stb	r3,158(sp)
 40026f0:	003e9306 	br	4002140 <__alt_mem_onchip_ram+0xfbf7e140>
 40026f4:	00c00044 	movi	r3,1
 40026f8:	d8c02905 	stb	r3,164(sp)
 40026fc:	00c00ac4 	movi	r3,43
 4002700:	d8c02b05 	stb	r3,172(sp)
 4002704:	ac400007 	ldb	r17,0(r21)
 4002708:	003d4306 	br	4001c18 <__alt_mem_onchip_ram+0xfbf7dc18>
 400270c:	84000814 	ori	r16,r16,32
 4002710:	ac400007 	ldb	r17,0(r21)
 4002714:	003d4006 	br	4001c18 <__alt_mem_onchip_ram+0xfbf7dc18>
 4002718:	d8802e17 	ldw	r2,184(sp)
 400271c:	8025883a 	mov	r18,r16
 4002720:	d8002785 	stb	zero,158(sp)
 4002724:	14000017 	ldw	r16,0(r2)
 4002728:	e011883a 	mov	r8,fp
 400272c:	14c00104 	addi	r19,r2,4
 4002730:	80042d26 	beq	r16,zero,40037e8 <___vfprintf_internal_r+0x1d58>
 4002734:	d8c02a17 	ldw	r3,168(sp)
 4002738:	1803e416 	blt	r3,zero,40036cc <___vfprintf_internal_r+0x1c3c>
 400273c:	180d883a 	mov	r6,r3
 4002740:	000b883a 	mov	r5,zero
 4002744:	8009883a 	mov	r4,r16
 4002748:	df003d15 	stw	fp,244(sp)
 400274c:	40073c80 	call	40073c8 <memchr>
 4002750:	da003d17 	ldw	r8,244(sp)
 4002754:	10046826 	beq	r2,zero,40038f8 <___vfprintf_internal_r+0x1e68>
 4002758:	1405c83a 	sub	r2,r2,r16
 400275c:	d8802b15 	stw	r2,172(sp)
 4002760:	1003e016 	blt	r2,zero,40036e4 <___vfprintf_internal_r+0x1c54>
 4002764:	df002783 	ldbu	fp,158(sp)
 4002768:	d8802915 	stw	r2,164(sp)
 400276c:	dcc02e15 	stw	r19,184(sp)
 4002770:	d8002a15 	stw	zero,168(sp)
 4002774:	d8003215 	stw	zero,200(sp)
 4002778:	003ea206 	br	4002204 <__alt_mem_onchip_ram+0xfbf7e204>
 400277c:	8025883a 	mov	r18,r16
 4002780:	dc002903 	ldbu	r16,164(sp)
 4002784:	e011883a 	mov	r8,fp
 4002788:	84003fcc 	andi	r16,r16,255
 400278c:	803f8d26 	beq	r16,zero,40025c4 <__alt_mem_onchip_ram+0xfbf7e5c4>
 4002790:	d8c02b03 	ldbu	r3,172(sp)
 4002794:	d8c02785 	stb	r3,158(sp)
 4002798:	003f8a06 	br	40025c4 <__alt_mem_onchip_ram+0xfbf7e5c4>
 400279c:	8025883a 	mov	r18,r16
 40027a0:	dc002903 	ldbu	r16,164(sp)
 40027a4:	e011883a 	mov	r8,fp
 40027a8:	84003fcc 	andi	r16,r16,255
 40027ac:	8005661e 	bne	r16,zero,4003d48 <___vfprintf_internal_r+0x22b8>
 40027b0:	01010074 	movhi	r4,1025
 40027b4:	21062c04 	addi	r4,r4,6320
 40027b8:	d9003915 	stw	r4,228(sp)
 40027bc:	9080080c 	andi	r2,r18,32
 40027c0:	103f9f1e 	bne	r2,zero,4002640 <__alt_mem_onchip_ram+0xfbf7e640>
 40027c4:	9080040c 	andi	r2,r18,16
 40027c8:	1002eb26 	beq	r2,zero,4003378 <___vfprintf_internal_r+0x18e8>
 40027cc:	d8802e17 	ldw	r2,184(sp)
 40027d0:	002d883a 	mov	r22,zero
 40027d4:	14c00017 	ldw	r19,0(r2)
 40027d8:	10800104 	addi	r2,r2,4
 40027dc:	d8802e15 	stw	r2,184(sp)
 40027e0:	003f9c06 	br	4002654 <__alt_mem_onchip_ram+0xfbf7e654>
 40027e4:	d8802b07 	ldb	r2,172(sp)
 40027e8:	1002e11e 	bne	r2,zero,4003370 <___vfprintf_internal_r+0x18e0>
 40027ec:	00c00044 	movi	r3,1
 40027f0:	d8c02905 	stb	r3,164(sp)
 40027f4:	00c00804 	movi	r3,32
 40027f8:	d8c02b05 	stb	r3,172(sp)
 40027fc:	ac400007 	ldb	r17,0(r21)
 4002800:	003d0506 	br	4001c18 <__alt_mem_onchip_ram+0xfbf7dc18>
 4002804:	84000054 	ori	r16,r16,1
 4002808:	ac400007 	ldb	r17,0(r21)
 400280c:	003d0206 	br	4001c18 <__alt_mem_onchip_ram+0xfbf7dc18>
 4002810:	8025883a 	mov	r18,r16
 4002814:	dc002903 	ldbu	r16,164(sp)
 4002818:	e011883a 	mov	r8,fp
 400281c:	84003fcc 	andi	r16,r16,255
 4002820:	803de726 	beq	r16,zero,4001fc0 <__alt_mem_onchip_ram+0xfbf7dfc0>
 4002824:	d8c02b03 	ldbu	r3,172(sp)
 4002828:	d8c02785 	stb	r3,158(sp)
 400282c:	003de406 	br	4001fc0 <__alt_mem_onchip_ram+0xfbf7dfc0>
 4002830:	84001014 	ori	r16,r16,64
 4002834:	ac400007 	ldb	r17,0(r21)
 4002838:	003cf706 	br	4001c18 <__alt_mem_onchip_ram+0xfbf7dc18>
 400283c:	ac400007 	ldb	r17,0(r21)
 4002840:	00801b04 	movi	r2,108
 4002844:	88838f26 	beq	r17,r2,4003684 <___vfprintf_internal_r+0x1bf4>
 4002848:	84000414 	ori	r16,r16,16
 400284c:	003cf206 	br	4001c18 <__alt_mem_onchip_ram+0xfbf7dc18>
 4002850:	8025883a 	mov	r18,r16
 4002854:	dc002903 	ldbu	r16,164(sp)
 4002858:	e011883a 	mov	r8,fp
 400285c:	84003fcc 	andi	r16,r16,255
 4002860:	80053f1e 	bne	r16,zero,4003d60 <___vfprintf_internal_r+0x22d0>
 4002864:	9080080c 	andi	r2,r18,32
 4002868:	1002d226 	beq	r2,zero,40033b4 <___vfprintf_internal_r+0x1924>
 400286c:	d9002e17 	ldw	r4,184(sp)
 4002870:	d9402f17 	ldw	r5,188(sp)
 4002874:	20800017 	ldw	r2,0(r4)
 4002878:	2807d7fa 	srai	r3,r5,31
 400287c:	21000104 	addi	r4,r4,4
 4002880:	d9002e15 	stw	r4,184(sp)
 4002884:	11400015 	stw	r5,0(r2)
 4002888:	10c00115 	stw	r3,4(r2)
 400288c:	003cb806 	br	4001b70 <__alt_mem_onchip_ram+0xfbf7db70>
 4002890:	d8c02e17 	ldw	r3,184(sp)
 4002894:	d9002e17 	ldw	r4,184(sp)
 4002898:	8025883a 	mov	r18,r16
 400289c:	18800017 	ldw	r2,0(r3)
 40028a0:	21000104 	addi	r4,r4,4
 40028a4:	00c00044 	movi	r3,1
 40028a8:	e011883a 	mov	r8,fp
 40028ac:	d8c02915 	stw	r3,164(sp)
 40028b0:	d8002785 	stb	zero,158(sp)
 40028b4:	d8801405 	stb	r2,80(sp)
 40028b8:	d9002e15 	stw	r4,184(sp)
 40028bc:	d8c02b15 	stw	r3,172(sp)
 40028c0:	d8002a15 	stw	zero,168(sp)
 40028c4:	d8003215 	stw	zero,200(sp)
 40028c8:	dc001404 	addi	r16,sp,80
 40028cc:	0039883a 	mov	fp,zero
 40028d0:	003e5306 	br	4002220 <__alt_mem_onchip_ram+0xfbf7e220>
 40028d4:	01010074 	movhi	r4,1025
 40028d8:	21062c04 	addi	r4,r4,6320
 40028dc:	0039883a 	mov	fp,zero
 40028e0:	d9003915 	stw	r4,228(sp)
 40028e4:	04401e04 	movi	r17,120
 40028e8:	003f6906 	br	4002690 <__alt_mem_onchip_ram+0xfbf7e690>
 40028ec:	8025883a 	mov	r18,r16
 40028f0:	dc002903 	ldbu	r16,164(sp)
 40028f4:	e011883a 	mov	r8,fp
 40028f8:	84003fcc 	andi	r16,r16,255
 40028fc:	8005081e 	bne	r16,zero,4003d20 <___vfprintf_internal_r+0x2290>
 4002900:	883d6126 	beq	r17,zero,4001e88 <__alt_mem_onchip_ram+0xfbf7de88>
 4002904:	00c00044 	movi	r3,1
 4002908:	d8c02915 	stw	r3,164(sp)
 400290c:	dc401405 	stb	r17,80(sp)
 4002910:	d8002785 	stb	zero,158(sp)
 4002914:	003fe906 	br	40028bc <__alt_mem_onchip_ram+0xfbf7e8bc>
 4002918:	01410074 	movhi	r5,1025
 400291c:	29462c04 	addi	r5,r5,6320
 4002920:	d9403915 	stw	r5,228(sp)
 4002924:	d8c02e15 	stw	r3,184(sp)
 4002928:	1025883a 	mov	r18,r2
 400292c:	04401e04 	movi	r17,120
 4002930:	9d84b03a 	or	r2,r19,r22
 4002934:	1000fc1e 	bne	r2,zero,4002d28 <___vfprintf_internal_r+0x1298>
 4002938:	0039883a 	mov	fp,zero
 400293c:	00800084 	movi	r2,2
 4002940:	10803fcc 	andi	r2,r2,255
 4002944:	00c00044 	movi	r3,1
 4002948:	10c20f26 	beq	r2,r3,4003188 <___vfprintf_internal_r+0x16f8>
 400294c:	00c00084 	movi	r3,2
 4002950:	10fd3326 	beq	r2,r3,4001e20 <__alt_mem_onchip_ram+0xfbf7de20>
 4002954:	003e0b06 	br	4002184 <__alt_mem_onchip_ram+0xfbf7e184>
 4002958:	d8c02017 	ldw	r3,128(sp)
 400295c:	003e7106 	br	4002324 <__alt_mem_onchip_ram+0xfbf7e324>
 4002960:	00801944 	movi	r2,101
 4002964:	14407e0e 	bge	r2,r17,4002b60 <___vfprintf_internal_r+0x10d0>
 4002968:	d9003617 	ldw	r4,216(sp)
 400296c:	d9403817 	ldw	r5,224(sp)
 4002970:	000d883a 	mov	r6,zero
 4002974:	000f883a 	mov	r7,zero
 4002978:	d8c03c15 	stw	r3,240(sp)
 400297c:	da003d15 	stw	r8,244(sp)
 4002980:	400d0600 	call	400d060 <__eqdf2>
 4002984:	d8c03c17 	ldw	r3,240(sp)
 4002988:	da003d17 	ldw	r8,244(sp)
 400298c:	1000f71e 	bne	r2,zero,4002d6c <___vfprintf_internal_r+0x12dc>
 4002990:	d8801f17 	ldw	r2,124(sp)
 4002994:	01010074 	movhi	r4,1025
 4002998:	21063304 	addi	r4,r4,6348
 400299c:	18c00044 	addi	r3,r3,1
 40029a0:	10800044 	addi	r2,r2,1
 40029a4:	41000015 	stw	r4,0(r8)
 40029a8:	01000044 	movi	r4,1
 40029ac:	41000115 	stw	r4,4(r8)
 40029b0:	d8c02015 	stw	r3,128(sp)
 40029b4:	d8801f15 	stw	r2,124(sp)
 40029b8:	010001c4 	movi	r4,7
 40029bc:	2082b816 	blt	r4,r2,40034a0 <___vfprintf_internal_r+0x1a10>
 40029c0:	42000204 	addi	r8,r8,8
 40029c4:	d8802617 	ldw	r2,152(sp)
 40029c8:	d9403317 	ldw	r5,204(sp)
 40029cc:	11400216 	blt	r2,r5,40029d8 <___vfprintf_internal_r+0xf48>
 40029d0:	9080004c 	andi	r2,r18,1
 40029d4:	103eb326 	beq	r2,zero,40024a4 <__alt_mem_onchip_ram+0xfbf7e4a4>
 40029d8:	d8803717 	ldw	r2,220(sp)
 40029dc:	d9003417 	ldw	r4,208(sp)
 40029e0:	d9403717 	ldw	r5,220(sp)
 40029e4:	1887883a 	add	r3,r3,r2
 40029e8:	d8801f17 	ldw	r2,124(sp)
 40029ec:	41000015 	stw	r4,0(r8)
 40029f0:	41400115 	stw	r5,4(r8)
 40029f4:	10800044 	addi	r2,r2,1
 40029f8:	d8c02015 	stw	r3,128(sp)
 40029fc:	d8801f15 	stw	r2,124(sp)
 4002a00:	010001c4 	movi	r4,7
 4002a04:	20832916 	blt	r4,r2,40036ac <___vfprintf_internal_r+0x1c1c>
 4002a08:	42000204 	addi	r8,r8,8
 4002a0c:	d8803317 	ldw	r2,204(sp)
 4002a10:	143fffc4 	addi	r16,r2,-1
 4002a14:	043ea30e 	bge	zero,r16,40024a4 <__alt_mem_onchip_ram+0xfbf7e4a4>
 4002a18:	04400404 	movi	r17,16
 4002a1c:	d8801f17 	ldw	r2,124(sp)
 4002a20:	8c00880e 	bge	r17,r16,4002c44 <___vfprintf_internal_r+0x11b4>
 4002a24:	01410074 	movhi	r5,1025
 4002a28:	29463384 	addi	r5,r5,6350
 4002a2c:	d9402c15 	stw	r5,176(sp)
 4002a30:	058001c4 	movi	r22,7
 4002a34:	dcc02d17 	ldw	r19,180(sp)
 4002a38:	00000306 	br	4002a48 <___vfprintf_internal_r+0xfb8>
 4002a3c:	42000204 	addi	r8,r8,8
 4002a40:	843ffc04 	addi	r16,r16,-16
 4002a44:	8c00820e 	bge	r17,r16,4002c50 <___vfprintf_internal_r+0x11c0>
 4002a48:	18c00404 	addi	r3,r3,16
 4002a4c:	10800044 	addi	r2,r2,1
 4002a50:	45000015 	stw	r20,0(r8)
 4002a54:	44400115 	stw	r17,4(r8)
 4002a58:	d8c02015 	stw	r3,128(sp)
 4002a5c:	d8801f15 	stw	r2,124(sp)
 4002a60:	b0bff60e 	bge	r22,r2,4002a3c <__alt_mem_onchip_ram+0xfbf7ea3c>
 4002a64:	d9801e04 	addi	r6,sp,120
 4002a68:	b80b883a 	mov	r5,r23
 4002a6c:	9809883a 	mov	r4,r19
 4002a70:	40091280 	call	4009128 <__sprint_r>
 4002a74:	103d0a1e 	bne	r2,zero,4001ea0 <__alt_mem_onchip_ram+0xfbf7dea0>
 4002a78:	d8c02017 	ldw	r3,128(sp)
 4002a7c:	d8801f17 	ldw	r2,124(sp)
 4002a80:	da000404 	addi	r8,sp,16
 4002a84:	003fee06 	br	4002a40 <__alt_mem_onchip_ram+0xfbf7ea40>
 4002a88:	d9403117 	ldw	r5,196(sp)
 4002a8c:	d8802917 	ldw	r2,164(sp)
 4002a90:	28adc83a 	sub	r22,r5,r2
 4002a94:	05be410e 	bge	zero,r22,400239c <__alt_mem_onchip_ram+0xfbf7e39c>
 4002a98:	07000404 	movi	fp,16
 4002a9c:	d8801f17 	ldw	r2,124(sp)
 4002aa0:	e5838f0e 	bge	fp,r22,40038e0 <___vfprintf_internal_r+0x1e50>
 4002aa4:	01410074 	movhi	r5,1025
 4002aa8:	29463384 	addi	r5,r5,6350
 4002aac:	dc403015 	stw	r17,192(sp)
 4002ab0:	d9402c15 	stw	r5,176(sp)
 4002ab4:	b023883a 	mov	r17,r22
 4002ab8:	04c001c4 	movi	r19,7
 4002abc:	a82d883a 	mov	r22,r21
 4002ac0:	902b883a 	mov	r21,r18
 4002ac4:	8025883a 	mov	r18,r16
 4002ac8:	dc002d17 	ldw	r16,180(sp)
 4002acc:	00000306 	br	4002adc <___vfprintf_internal_r+0x104c>
 4002ad0:	8c7ffc04 	addi	r17,r17,-16
 4002ad4:	42000204 	addi	r8,r8,8
 4002ad8:	e440110e 	bge	fp,r17,4002b20 <___vfprintf_internal_r+0x1090>
 4002adc:	18c00404 	addi	r3,r3,16
 4002ae0:	10800044 	addi	r2,r2,1
 4002ae4:	45000015 	stw	r20,0(r8)
 4002ae8:	47000115 	stw	fp,4(r8)
 4002aec:	d8c02015 	stw	r3,128(sp)
 4002af0:	d8801f15 	stw	r2,124(sp)
 4002af4:	98bff60e 	bge	r19,r2,4002ad0 <__alt_mem_onchip_ram+0xfbf7ead0>
 4002af8:	d9801e04 	addi	r6,sp,120
 4002afc:	b80b883a 	mov	r5,r23
 4002b00:	8009883a 	mov	r4,r16
 4002b04:	40091280 	call	4009128 <__sprint_r>
 4002b08:	103ce51e 	bne	r2,zero,4001ea0 <__alt_mem_onchip_ram+0xfbf7dea0>
 4002b0c:	8c7ffc04 	addi	r17,r17,-16
 4002b10:	d8c02017 	ldw	r3,128(sp)
 4002b14:	d8801f17 	ldw	r2,124(sp)
 4002b18:	da000404 	addi	r8,sp,16
 4002b1c:	e47fef16 	blt	fp,r17,4002adc <__alt_mem_onchip_ram+0xfbf7eadc>
 4002b20:	9021883a 	mov	r16,r18
 4002b24:	a825883a 	mov	r18,r21
 4002b28:	b02b883a 	mov	r21,r22
 4002b2c:	882d883a 	mov	r22,r17
 4002b30:	dc403017 	ldw	r17,192(sp)
 4002b34:	d9002c17 	ldw	r4,176(sp)
 4002b38:	1d87883a 	add	r3,r3,r22
 4002b3c:	10800044 	addi	r2,r2,1
 4002b40:	41000015 	stw	r4,0(r8)
 4002b44:	45800115 	stw	r22,4(r8)
 4002b48:	d8c02015 	stw	r3,128(sp)
 4002b4c:	d8801f15 	stw	r2,124(sp)
 4002b50:	010001c4 	movi	r4,7
 4002b54:	20818e16 	blt	r4,r2,4003190 <___vfprintf_internal_r+0x1700>
 4002b58:	42000204 	addi	r8,r8,8
 4002b5c:	003e0f06 	br	400239c <__alt_mem_onchip_ram+0xfbf7e39c>
 4002b60:	d9403317 	ldw	r5,204(sp)
 4002b64:	00800044 	movi	r2,1
 4002b68:	18c00044 	addi	r3,r3,1
 4002b6c:	1141530e 	bge	r2,r5,40030bc <___vfprintf_internal_r+0x162c>
 4002b70:	dc401f17 	ldw	r17,124(sp)
 4002b74:	00800044 	movi	r2,1
 4002b78:	40800115 	stw	r2,4(r8)
 4002b7c:	8c400044 	addi	r17,r17,1
 4002b80:	44000015 	stw	r16,0(r8)
 4002b84:	d8c02015 	stw	r3,128(sp)
 4002b88:	dc401f15 	stw	r17,124(sp)
 4002b8c:	008001c4 	movi	r2,7
 4002b90:	14416b16 	blt	r2,r17,4003140 <___vfprintf_internal_r+0x16b0>
 4002b94:	42000204 	addi	r8,r8,8
 4002b98:	d8803717 	ldw	r2,220(sp)
 4002b9c:	d9003417 	ldw	r4,208(sp)
 4002ba0:	8c400044 	addi	r17,r17,1
 4002ba4:	10c7883a 	add	r3,r2,r3
 4002ba8:	40800115 	stw	r2,4(r8)
 4002bac:	41000015 	stw	r4,0(r8)
 4002bb0:	d8c02015 	stw	r3,128(sp)
 4002bb4:	dc401f15 	stw	r17,124(sp)
 4002bb8:	008001c4 	movi	r2,7
 4002bbc:	14416916 	blt	r2,r17,4003164 <___vfprintf_internal_r+0x16d4>
 4002bc0:	45800204 	addi	r22,r8,8
 4002bc4:	d9003617 	ldw	r4,216(sp)
 4002bc8:	d9403817 	ldw	r5,224(sp)
 4002bcc:	000d883a 	mov	r6,zero
 4002bd0:	000f883a 	mov	r7,zero
 4002bd4:	d8c03c15 	stw	r3,240(sp)
 4002bd8:	400d0600 	call	400d060 <__eqdf2>
 4002bdc:	d8c03c17 	ldw	r3,240(sp)
 4002be0:	1000bc26 	beq	r2,zero,4002ed4 <___vfprintf_internal_r+0x1444>
 4002be4:	d9403317 	ldw	r5,204(sp)
 4002be8:	84000044 	addi	r16,r16,1
 4002bec:	8c400044 	addi	r17,r17,1
 4002bf0:	28bfffc4 	addi	r2,r5,-1
 4002bf4:	1887883a 	add	r3,r3,r2
 4002bf8:	b0800115 	stw	r2,4(r22)
 4002bfc:	b4000015 	stw	r16,0(r22)
 4002c00:	d8c02015 	stw	r3,128(sp)
 4002c04:	dc401f15 	stw	r17,124(sp)
 4002c08:	008001c4 	movi	r2,7
 4002c0c:	14414316 	blt	r2,r17,400311c <___vfprintf_internal_r+0x168c>
 4002c10:	b5800204 	addi	r22,r22,8
 4002c14:	d9003a17 	ldw	r4,232(sp)
 4002c18:	df0022c4 	addi	fp,sp,139
 4002c1c:	8c400044 	addi	r17,r17,1
 4002c20:	20c7883a 	add	r3,r4,r3
 4002c24:	b7000015 	stw	fp,0(r22)
 4002c28:	b1000115 	stw	r4,4(r22)
 4002c2c:	d8c02015 	stw	r3,128(sp)
 4002c30:	dc401f15 	stw	r17,124(sp)
 4002c34:	008001c4 	movi	r2,7
 4002c38:	14400e16 	blt	r2,r17,4002c74 <___vfprintf_internal_r+0x11e4>
 4002c3c:	b2000204 	addi	r8,r22,8
 4002c40:	003e1806 	br	40024a4 <__alt_mem_onchip_ram+0xfbf7e4a4>
 4002c44:	01010074 	movhi	r4,1025
 4002c48:	21063384 	addi	r4,r4,6350
 4002c4c:	d9002c15 	stw	r4,176(sp)
 4002c50:	d9002c17 	ldw	r4,176(sp)
 4002c54:	1c07883a 	add	r3,r3,r16
 4002c58:	44000115 	stw	r16,4(r8)
 4002c5c:	41000015 	stw	r4,0(r8)
 4002c60:	10800044 	addi	r2,r2,1
 4002c64:	d8c02015 	stw	r3,128(sp)
 4002c68:	d8801f15 	stw	r2,124(sp)
 4002c6c:	010001c4 	movi	r4,7
 4002c70:	20be0b0e 	bge	r4,r2,40024a0 <__alt_mem_onchip_ram+0xfbf7e4a0>
 4002c74:	d9002d17 	ldw	r4,180(sp)
 4002c78:	d9801e04 	addi	r6,sp,120
 4002c7c:	b80b883a 	mov	r5,r23
 4002c80:	40091280 	call	4009128 <__sprint_r>
 4002c84:	103c861e 	bne	r2,zero,4001ea0 <__alt_mem_onchip_ram+0xfbf7dea0>
 4002c88:	d8c02017 	ldw	r3,128(sp)
 4002c8c:	da000404 	addi	r8,sp,16
 4002c90:	003e0406 	br	40024a4 <__alt_mem_onchip_ram+0xfbf7e4a4>
 4002c94:	d9002d17 	ldw	r4,180(sp)
 4002c98:	d9801e04 	addi	r6,sp,120
 4002c9c:	b80b883a 	mov	r5,r23
 4002ca0:	40091280 	call	4009128 <__sprint_r>
 4002ca4:	103e3b26 	beq	r2,zero,4002594 <__alt_mem_onchip_ram+0xfbf7e594>
 4002ca8:	003c7d06 	br	4001ea0 <__alt_mem_onchip_ram+0xfbf7dea0>
 4002cac:	d9002d17 	ldw	r4,180(sp)
 4002cb0:	d9801e04 	addi	r6,sp,120
 4002cb4:	b80b883a 	mov	r5,r23
 4002cb8:	40091280 	call	4009128 <__sprint_r>
 4002cbc:	103c781e 	bne	r2,zero,4001ea0 <__alt_mem_onchip_ram+0xfbf7dea0>
 4002cc0:	d8c02017 	ldw	r3,128(sp)
 4002cc4:	da000404 	addi	r8,sp,16
 4002cc8:	003de906 	br	4002470 <__alt_mem_onchip_ram+0xfbf7e470>
 4002ccc:	d9002d17 	ldw	r4,180(sp)
 4002cd0:	d9801e04 	addi	r6,sp,120
 4002cd4:	b80b883a 	mov	r5,r23
 4002cd8:	40091280 	call	4009128 <__sprint_r>
 4002cdc:	103c701e 	bne	r2,zero,4001ea0 <__alt_mem_onchip_ram+0xfbf7dea0>
 4002ce0:	d8c02017 	ldw	r3,128(sp)
 4002ce4:	da000404 	addi	r8,sp,16
 4002ce8:	003d9b06 	br	4002358 <__alt_mem_onchip_ram+0xfbf7e358>
 4002cec:	d9002d17 	ldw	r4,180(sp)
 4002cf0:	d9801e04 	addi	r6,sp,120
 4002cf4:	b80b883a 	mov	r5,r23
 4002cf8:	40091280 	call	4009128 <__sprint_r>
 4002cfc:	103c681e 	bne	r2,zero,4001ea0 <__alt_mem_onchip_ram+0xfbf7dea0>
 4002d00:	d8c02017 	ldw	r3,128(sp)
 4002d04:	da000404 	addi	r8,sp,16
 4002d08:	003da106 	br	4002390 <__alt_mem_onchip_ram+0xfbf7e390>
 4002d0c:	d9402a17 	ldw	r5,168(sp)
 4002d10:	d8002785 	stb	zero,158(sp)
 4002d14:	283f0616 	blt	r5,zero,4002930 <__alt_mem_onchip_ram+0xfbf7e930>
 4002d18:	00ffdfc4 	movi	r3,-129
 4002d1c:	9d84b03a 	or	r2,r19,r22
 4002d20:	90e4703a 	and	r18,r18,r3
 4002d24:	103c3b26 	beq	r2,zero,4001e14 <__alt_mem_onchip_ram+0xfbf7de14>
 4002d28:	0039883a 	mov	fp,zero
 4002d2c:	003e5806 	br	4002690 <__alt_mem_onchip_ram+0xfbf7e690>
 4002d30:	9080040c 	andi	r2,r18,16
 4002d34:	1001b326 	beq	r2,zero,4003404 <___vfprintf_internal_r+0x1974>
 4002d38:	d8c02e17 	ldw	r3,184(sp)
 4002d3c:	d9002a17 	ldw	r4,168(sp)
 4002d40:	d8002785 	stb	zero,158(sp)
 4002d44:	18800104 	addi	r2,r3,4
 4002d48:	1cc00017 	ldw	r19,0(r3)
 4002d4c:	002d883a 	mov	r22,zero
 4002d50:	2001b516 	blt	r4,zero,4003428 <___vfprintf_internal_r+0x1998>
 4002d54:	00ffdfc4 	movi	r3,-129
 4002d58:	d8802e15 	stw	r2,184(sp)
 4002d5c:	90e4703a 	and	r18,r18,r3
 4002d60:	983d0526 	beq	r19,zero,4002178 <__alt_mem_onchip_ram+0xfbf7e178>
 4002d64:	0039883a 	mov	fp,zero
 4002d68:	003d0806 	br	400218c <__alt_mem_onchip_ram+0xfbf7e18c>
 4002d6c:	dc402617 	ldw	r17,152(sp)
 4002d70:	0441d30e 	bge	zero,r17,40034c0 <___vfprintf_internal_r+0x1a30>
 4002d74:	dc403217 	ldw	r17,200(sp)
 4002d78:	d8803317 	ldw	r2,204(sp)
 4002d7c:	1440010e 	bge	r2,r17,4002d84 <___vfprintf_internal_r+0x12f4>
 4002d80:	1023883a 	mov	r17,r2
 4002d84:	04400a0e 	bge	zero,r17,4002db0 <___vfprintf_internal_r+0x1320>
 4002d88:	d8801f17 	ldw	r2,124(sp)
 4002d8c:	1c47883a 	add	r3,r3,r17
 4002d90:	44000015 	stw	r16,0(r8)
 4002d94:	10800044 	addi	r2,r2,1
 4002d98:	44400115 	stw	r17,4(r8)
 4002d9c:	d8c02015 	stw	r3,128(sp)
 4002da0:	d8801f15 	stw	r2,124(sp)
 4002da4:	010001c4 	movi	r4,7
 4002da8:	20826516 	blt	r4,r2,4003740 <___vfprintf_internal_r+0x1cb0>
 4002dac:	42000204 	addi	r8,r8,8
 4002db0:	88026116 	blt	r17,zero,4003738 <___vfprintf_internal_r+0x1ca8>
 4002db4:	d9003217 	ldw	r4,200(sp)
 4002db8:	2463c83a 	sub	r17,r4,r17
 4002dbc:	04407b0e 	bge	zero,r17,4002fac <___vfprintf_internal_r+0x151c>
 4002dc0:	05800404 	movi	r22,16
 4002dc4:	d8801f17 	ldw	r2,124(sp)
 4002dc8:	b4419d0e 	bge	r22,r17,4003440 <___vfprintf_internal_r+0x19b0>
 4002dcc:	01010074 	movhi	r4,1025
 4002dd0:	21063384 	addi	r4,r4,6350
 4002dd4:	d9002c15 	stw	r4,176(sp)
 4002dd8:	070001c4 	movi	fp,7
 4002ddc:	dcc02d17 	ldw	r19,180(sp)
 4002de0:	00000306 	br	4002df0 <___vfprintf_internal_r+0x1360>
 4002de4:	42000204 	addi	r8,r8,8
 4002de8:	8c7ffc04 	addi	r17,r17,-16
 4002dec:	b441970e 	bge	r22,r17,400344c <___vfprintf_internal_r+0x19bc>
 4002df0:	18c00404 	addi	r3,r3,16
 4002df4:	10800044 	addi	r2,r2,1
 4002df8:	45000015 	stw	r20,0(r8)
 4002dfc:	45800115 	stw	r22,4(r8)
 4002e00:	d8c02015 	stw	r3,128(sp)
 4002e04:	d8801f15 	stw	r2,124(sp)
 4002e08:	e0bff60e 	bge	fp,r2,4002de4 <__alt_mem_onchip_ram+0xfbf7ede4>
 4002e0c:	d9801e04 	addi	r6,sp,120
 4002e10:	b80b883a 	mov	r5,r23
 4002e14:	9809883a 	mov	r4,r19
 4002e18:	40091280 	call	4009128 <__sprint_r>
 4002e1c:	103c201e 	bne	r2,zero,4001ea0 <__alt_mem_onchip_ram+0xfbf7dea0>
 4002e20:	d8c02017 	ldw	r3,128(sp)
 4002e24:	d8801f17 	ldw	r2,124(sp)
 4002e28:	da000404 	addi	r8,sp,16
 4002e2c:	003fee06 	br	4002de8 <__alt_mem_onchip_ram+0xfbf7ede8>
 4002e30:	d9002d17 	ldw	r4,180(sp)
 4002e34:	d9801e04 	addi	r6,sp,120
 4002e38:	b80b883a 	mov	r5,r23
 4002e3c:	40091280 	call	4009128 <__sprint_r>
 4002e40:	103c171e 	bne	r2,zero,4001ea0 <__alt_mem_onchip_ram+0xfbf7dea0>
 4002e44:	d8c02017 	ldw	r3,128(sp)
 4002e48:	df002787 	ldb	fp,158(sp)
 4002e4c:	da000404 	addi	r8,sp,16
 4002e50:	003d3406 	br	4002324 <__alt_mem_onchip_ram+0xfbf7e324>
 4002e54:	9080040c 	andi	r2,r18,16
 4002e58:	10016126 	beq	r2,zero,40033e0 <___vfprintf_internal_r+0x1950>
 4002e5c:	d9402e17 	ldw	r5,184(sp)
 4002e60:	2cc00017 	ldw	r19,0(r5)
 4002e64:	29400104 	addi	r5,r5,4
 4002e68:	d9402e15 	stw	r5,184(sp)
 4002e6c:	982dd7fa 	srai	r22,r19,31
 4002e70:	b005883a 	mov	r2,r22
 4002e74:	003c5a06 	br	4001fe0 <__alt_mem_onchip_ram+0xfbf7dfe0>
 4002e78:	9080040c 	andi	r2,r18,16
 4002e7c:	10003526 	beq	r2,zero,4002f54 <___vfprintf_internal_r+0x14c4>
 4002e80:	d8c02e17 	ldw	r3,184(sp)
 4002e84:	d9002a17 	ldw	r4,168(sp)
 4002e88:	d8002785 	stb	zero,158(sp)
 4002e8c:	18800104 	addi	r2,r3,4
 4002e90:	1cc00017 	ldw	r19,0(r3)
 4002e94:	002d883a 	mov	r22,zero
 4002e98:	20003716 	blt	r4,zero,4002f78 <___vfprintf_internal_r+0x14e8>
 4002e9c:	00ffdfc4 	movi	r3,-129
 4002ea0:	d8802e15 	stw	r2,184(sp)
 4002ea4:	90e4703a 	and	r18,r18,r3
 4002ea8:	0039883a 	mov	fp,zero
 4002eac:	983dd426 	beq	r19,zero,4002600 <__alt_mem_onchip_ram+0xfbf7e600>
 4002eb0:	00800244 	movi	r2,9
 4002eb4:	14fc5336 	bltu	r2,r19,4002004 <__alt_mem_onchip_ram+0xfbf7e004>
 4002eb8:	d8c02817 	ldw	r3,160(sp)
 4002ebc:	dc001dc4 	addi	r16,sp,119
 4002ec0:	9cc00c04 	addi	r19,r19,48
 4002ec4:	1c07c83a 	sub	r3,r3,r16
 4002ec8:	dcc01dc5 	stb	r19,119(sp)
 4002ecc:	d8c02b15 	stw	r3,172(sp)
 4002ed0:	003cc606 	br	40021ec <__alt_mem_onchip_ram+0xfbf7e1ec>
 4002ed4:	d8803317 	ldw	r2,204(sp)
 4002ed8:	143fffc4 	addi	r16,r2,-1
 4002edc:	043f4d0e 	bge	zero,r16,4002c14 <__alt_mem_onchip_ram+0xfbf7ec14>
 4002ee0:	07000404 	movi	fp,16
 4002ee4:	e400810e 	bge	fp,r16,40030ec <___vfprintf_internal_r+0x165c>
 4002ee8:	01410074 	movhi	r5,1025
 4002eec:	29463384 	addi	r5,r5,6350
 4002ef0:	d9402c15 	stw	r5,176(sp)
 4002ef4:	01c001c4 	movi	r7,7
 4002ef8:	dcc02d17 	ldw	r19,180(sp)
 4002efc:	00000306 	br	4002f0c <___vfprintf_internal_r+0x147c>
 4002f00:	b5800204 	addi	r22,r22,8
 4002f04:	843ffc04 	addi	r16,r16,-16
 4002f08:	e4007b0e 	bge	fp,r16,40030f8 <___vfprintf_internal_r+0x1668>
 4002f0c:	18c00404 	addi	r3,r3,16
 4002f10:	8c400044 	addi	r17,r17,1
 4002f14:	b5000015 	stw	r20,0(r22)
 4002f18:	b7000115 	stw	fp,4(r22)
 4002f1c:	d8c02015 	stw	r3,128(sp)
 4002f20:	dc401f15 	stw	r17,124(sp)
 4002f24:	3c7ff60e 	bge	r7,r17,4002f00 <__alt_mem_onchip_ram+0xfbf7ef00>
 4002f28:	d9801e04 	addi	r6,sp,120
 4002f2c:	b80b883a 	mov	r5,r23
 4002f30:	9809883a 	mov	r4,r19
 4002f34:	d9c03c15 	stw	r7,240(sp)
 4002f38:	40091280 	call	4009128 <__sprint_r>
 4002f3c:	d9c03c17 	ldw	r7,240(sp)
 4002f40:	103bd71e 	bne	r2,zero,4001ea0 <__alt_mem_onchip_ram+0xfbf7dea0>
 4002f44:	d8c02017 	ldw	r3,128(sp)
 4002f48:	dc401f17 	ldw	r17,124(sp)
 4002f4c:	dd800404 	addi	r22,sp,16
 4002f50:	003fec06 	br	4002f04 <__alt_mem_onchip_ram+0xfbf7ef04>
 4002f54:	9080100c 	andi	r2,r18,64
 4002f58:	d8002785 	stb	zero,158(sp)
 4002f5c:	10010e26 	beq	r2,zero,4003398 <___vfprintf_internal_r+0x1908>
 4002f60:	d9402e17 	ldw	r5,184(sp)
 4002f64:	d8c02a17 	ldw	r3,168(sp)
 4002f68:	002d883a 	mov	r22,zero
 4002f6c:	28800104 	addi	r2,r5,4
 4002f70:	2cc0000b 	ldhu	r19,0(r5)
 4002f74:	183fc90e 	bge	r3,zero,4002e9c <__alt_mem_onchip_ram+0xfbf7ee9c>
 4002f78:	d8802e15 	stw	r2,184(sp)
 4002f7c:	0039883a 	mov	fp,zero
 4002f80:	9d84b03a 	or	r2,r19,r22
 4002f84:	103c1e1e 	bne	r2,zero,4002000 <__alt_mem_onchip_ram+0xfbf7e000>
 4002f88:	00800044 	movi	r2,1
 4002f8c:	003e6c06 	br	4002940 <__alt_mem_onchip_ram+0xfbf7e940>
 4002f90:	d9002d17 	ldw	r4,180(sp)
 4002f94:	d9801e04 	addi	r6,sp,120
 4002f98:	b80b883a 	mov	r5,r23
 4002f9c:	40091280 	call	4009128 <__sprint_r>
 4002fa0:	103bbf1e 	bne	r2,zero,4001ea0 <__alt_mem_onchip_ram+0xfbf7dea0>
 4002fa4:	d8c02017 	ldw	r3,128(sp)
 4002fa8:	da000404 	addi	r8,sp,16
 4002fac:	d9003217 	ldw	r4,200(sp)
 4002fb0:	d8802617 	ldw	r2,152(sp)
 4002fb4:	d9403317 	ldw	r5,204(sp)
 4002fb8:	8123883a 	add	r17,r16,r4
 4002fbc:	11400216 	blt	r2,r5,4002fc8 <___vfprintf_internal_r+0x1538>
 4002fc0:	9100004c 	andi	r4,r18,1
 4002fc4:	20000d26 	beq	r4,zero,4002ffc <___vfprintf_internal_r+0x156c>
 4002fc8:	d9003717 	ldw	r4,220(sp)
 4002fcc:	d9403417 	ldw	r5,208(sp)
 4002fd0:	1907883a 	add	r3,r3,r4
 4002fd4:	d9001f17 	ldw	r4,124(sp)
 4002fd8:	41400015 	stw	r5,0(r8)
 4002fdc:	d9403717 	ldw	r5,220(sp)
 4002fe0:	21000044 	addi	r4,r4,1
 4002fe4:	d8c02015 	stw	r3,128(sp)
 4002fe8:	41400115 	stw	r5,4(r8)
 4002fec:	d9001f15 	stw	r4,124(sp)
 4002ff0:	014001c4 	movi	r5,7
 4002ff4:	2901e816 	blt	r5,r4,4003798 <___vfprintf_internal_r+0x1d08>
 4002ff8:	42000204 	addi	r8,r8,8
 4002ffc:	d9003317 	ldw	r4,204(sp)
 4003000:	8121883a 	add	r16,r16,r4
 4003004:	2085c83a 	sub	r2,r4,r2
 4003008:	8461c83a 	sub	r16,r16,r17
 400300c:	1400010e 	bge	r2,r16,4003014 <___vfprintf_internal_r+0x1584>
 4003010:	1021883a 	mov	r16,r2
 4003014:	04000a0e 	bge	zero,r16,4003040 <___vfprintf_internal_r+0x15b0>
 4003018:	d9001f17 	ldw	r4,124(sp)
 400301c:	1c07883a 	add	r3,r3,r16
 4003020:	44400015 	stw	r17,0(r8)
 4003024:	21000044 	addi	r4,r4,1
 4003028:	44000115 	stw	r16,4(r8)
 400302c:	d8c02015 	stw	r3,128(sp)
 4003030:	d9001f15 	stw	r4,124(sp)
 4003034:	014001c4 	movi	r5,7
 4003038:	2901fb16 	blt	r5,r4,4003828 <___vfprintf_internal_r+0x1d98>
 400303c:	42000204 	addi	r8,r8,8
 4003040:	8001f716 	blt	r16,zero,4003820 <___vfprintf_internal_r+0x1d90>
 4003044:	1421c83a 	sub	r16,r2,r16
 4003048:	043d160e 	bge	zero,r16,40024a4 <__alt_mem_onchip_ram+0xfbf7e4a4>
 400304c:	04400404 	movi	r17,16
 4003050:	d8801f17 	ldw	r2,124(sp)
 4003054:	8c3efb0e 	bge	r17,r16,4002c44 <__alt_mem_onchip_ram+0xfbf7ec44>
 4003058:	01410074 	movhi	r5,1025
 400305c:	29463384 	addi	r5,r5,6350
 4003060:	d9402c15 	stw	r5,176(sp)
 4003064:	058001c4 	movi	r22,7
 4003068:	dcc02d17 	ldw	r19,180(sp)
 400306c:	00000306 	br	400307c <___vfprintf_internal_r+0x15ec>
 4003070:	42000204 	addi	r8,r8,8
 4003074:	843ffc04 	addi	r16,r16,-16
 4003078:	8c3ef50e 	bge	r17,r16,4002c50 <__alt_mem_onchip_ram+0xfbf7ec50>
 400307c:	18c00404 	addi	r3,r3,16
 4003080:	10800044 	addi	r2,r2,1
 4003084:	45000015 	stw	r20,0(r8)
 4003088:	44400115 	stw	r17,4(r8)
 400308c:	d8c02015 	stw	r3,128(sp)
 4003090:	d8801f15 	stw	r2,124(sp)
 4003094:	b0bff60e 	bge	r22,r2,4003070 <__alt_mem_onchip_ram+0xfbf7f070>
 4003098:	d9801e04 	addi	r6,sp,120
 400309c:	b80b883a 	mov	r5,r23
 40030a0:	9809883a 	mov	r4,r19
 40030a4:	40091280 	call	4009128 <__sprint_r>
 40030a8:	103b7d1e 	bne	r2,zero,4001ea0 <__alt_mem_onchip_ram+0xfbf7dea0>
 40030ac:	d8c02017 	ldw	r3,128(sp)
 40030b0:	d8801f17 	ldw	r2,124(sp)
 40030b4:	da000404 	addi	r8,sp,16
 40030b8:	003fee06 	br	4003074 <__alt_mem_onchip_ram+0xfbf7f074>
 40030bc:	9088703a 	and	r4,r18,r2
 40030c0:	203eab1e 	bne	r4,zero,4002b70 <__alt_mem_onchip_ram+0xfbf7eb70>
 40030c4:	dc401f17 	ldw	r17,124(sp)
 40030c8:	40800115 	stw	r2,4(r8)
 40030cc:	44000015 	stw	r16,0(r8)
 40030d0:	8c400044 	addi	r17,r17,1
 40030d4:	d8c02015 	stw	r3,128(sp)
 40030d8:	dc401f15 	stw	r17,124(sp)
 40030dc:	008001c4 	movi	r2,7
 40030e0:	14400e16 	blt	r2,r17,400311c <___vfprintf_internal_r+0x168c>
 40030e4:	45800204 	addi	r22,r8,8
 40030e8:	003eca06 	br	4002c14 <__alt_mem_onchip_ram+0xfbf7ec14>
 40030ec:	01010074 	movhi	r4,1025
 40030f0:	21063384 	addi	r4,r4,6350
 40030f4:	d9002c15 	stw	r4,176(sp)
 40030f8:	d8802c17 	ldw	r2,176(sp)
 40030fc:	1c07883a 	add	r3,r3,r16
 4003100:	8c400044 	addi	r17,r17,1
 4003104:	b0800015 	stw	r2,0(r22)
 4003108:	b4000115 	stw	r16,4(r22)
 400310c:	d8c02015 	stw	r3,128(sp)
 4003110:	dc401f15 	stw	r17,124(sp)
 4003114:	008001c4 	movi	r2,7
 4003118:	147ebd0e 	bge	r2,r17,4002c10 <__alt_mem_onchip_ram+0xfbf7ec10>
 400311c:	d9002d17 	ldw	r4,180(sp)
 4003120:	d9801e04 	addi	r6,sp,120
 4003124:	b80b883a 	mov	r5,r23
 4003128:	40091280 	call	4009128 <__sprint_r>
 400312c:	103b5c1e 	bne	r2,zero,4001ea0 <__alt_mem_onchip_ram+0xfbf7dea0>
 4003130:	d8c02017 	ldw	r3,128(sp)
 4003134:	dc401f17 	ldw	r17,124(sp)
 4003138:	dd800404 	addi	r22,sp,16
 400313c:	003eb506 	br	4002c14 <__alt_mem_onchip_ram+0xfbf7ec14>
 4003140:	d9002d17 	ldw	r4,180(sp)
 4003144:	d9801e04 	addi	r6,sp,120
 4003148:	b80b883a 	mov	r5,r23
 400314c:	40091280 	call	4009128 <__sprint_r>
 4003150:	103b531e 	bne	r2,zero,4001ea0 <__alt_mem_onchip_ram+0xfbf7dea0>
 4003154:	d8c02017 	ldw	r3,128(sp)
 4003158:	dc401f17 	ldw	r17,124(sp)
 400315c:	da000404 	addi	r8,sp,16
 4003160:	003e8d06 	br	4002b98 <__alt_mem_onchip_ram+0xfbf7eb98>
 4003164:	d9002d17 	ldw	r4,180(sp)
 4003168:	d9801e04 	addi	r6,sp,120
 400316c:	b80b883a 	mov	r5,r23
 4003170:	40091280 	call	4009128 <__sprint_r>
 4003174:	103b4a1e 	bne	r2,zero,4001ea0 <__alt_mem_onchip_ram+0xfbf7dea0>
 4003178:	d8c02017 	ldw	r3,128(sp)
 400317c:	dc401f17 	ldw	r17,124(sp)
 4003180:	dd800404 	addi	r22,sp,16
 4003184:	003e8f06 	br	4002bc4 <__alt_mem_onchip_ram+0xfbf7ebc4>
 4003188:	0027883a 	mov	r19,zero
 400318c:	003f4a06 	br	4002eb8 <__alt_mem_onchip_ram+0xfbf7eeb8>
 4003190:	d9002d17 	ldw	r4,180(sp)
 4003194:	d9801e04 	addi	r6,sp,120
 4003198:	b80b883a 	mov	r5,r23
 400319c:	40091280 	call	4009128 <__sprint_r>
 40031a0:	103b3f1e 	bne	r2,zero,4001ea0 <__alt_mem_onchip_ram+0xfbf7dea0>
 40031a4:	d8c02017 	ldw	r3,128(sp)
 40031a8:	da000404 	addi	r8,sp,16
 40031ac:	003c7b06 	br	400239c <__alt_mem_onchip_ram+0xfbf7e39c>
 40031b0:	d9402a17 	ldw	r5,168(sp)
 40031b4:	04e7c83a 	sub	r19,zero,r19
 40031b8:	07000b44 	movi	fp,45
 40031bc:	9804c03a 	cmpne	r2,r19,zero
 40031c0:	05adc83a 	sub	r22,zero,r22
 40031c4:	df002785 	stb	fp,158(sp)
 40031c8:	b0adc83a 	sub	r22,r22,r2
 40031cc:	28017b16 	blt	r5,zero,40037bc <___vfprintf_internal_r+0x1d2c>
 40031d0:	00bfdfc4 	movi	r2,-129
 40031d4:	90a4703a 	and	r18,r18,r2
 40031d8:	003b8906 	br	4002000 <__alt_mem_onchip_ram+0xfbf7e000>
 40031dc:	d9003617 	ldw	r4,216(sp)
 40031e0:	d9403817 	ldw	r5,224(sp)
 40031e4:	da003d15 	stw	r8,244(sp)
 40031e8:	4008d4c0 	call	4008d4c <__fpclassifyd>
 40031ec:	da003d17 	ldw	r8,244(sp)
 40031f0:	1000f026 	beq	r2,zero,40035b4 <___vfprintf_internal_r+0x1b24>
 40031f4:	d9002a17 	ldw	r4,168(sp)
 40031f8:	05bff7c4 	movi	r22,-33
 40031fc:	00bfffc4 	movi	r2,-1
 4003200:	8dac703a 	and	r22,r17,r22
 4003204:	20820026 	beq	r4,r2,4003a08 <___vfprintf_internal_r+0x1f78>
 4003208:	008011c4 	movi	r2,71
 400320c:	b081f726 	beq	r22,r2,40039ec <___vfprintf_internal_r+0x1f5c>
 4003210:	d9003817 	ldw	r4,224(sp)
 4003214:	90c04014 	ori	r3,r18,256
 4003218:	d8c02c15 	stw	r3,176(sp)
 400321c:	20021516 	blt	r4,zero,4003a74 <___vfprintf_internal_r+0x1fe4>
 4003220:	dcc03817 	ldw	r19,224(sp)
 4003224:	d8002905 	stb	zero,164(sp)
 4003228:	00801984 	movi	r2,102
 400322c:	8881f926 	beq	r17,r2,4003a14 <___vfprintf_internal_r+0x1f84>
 4003230:	00801184 	movi	r2,70
 4003234:	88821c26 	beq	r17,r2,4003aa8 <___vfprintf_internal_r+0x2018>
 4003238:	00801144 	movi	r2,69
 400323c:	b081ef26 	beq	r22,r2,40039fc <___vfprintf_internal_r+0x1f6c>
 4003240:	d8c02a17 	ldw	r3,168(sp)
 4003244:	d8802104 	addi	r2,sp,132
 4003248:	d8800315 	stw	r2,12(sp)
 400324c:	d9403617 	ldw	r5,216(sp)
 4003250:	d8802504 	addi	r2,sp,148
 4003254:	d9002d17 	ldw	r4,180(sp)
 4003258:	d8800215 	stw	r2,8(sp)
 400325c:	d8802604 	addi	r2,sp,152
 4003260:	d8c00015 	stw	r3,0(sp)
 4003264:	d8800115 	stw	r2,4(sp)
 4003268:	01c00084 	movi	r7,2
 400326c:	980d883a 	mov	r6,r19
 4003270:	d8c03c15 	stw	r3,240(sp)
 4003274:	da003d15 	stw	r8,244(sp)
 4003278:	40041c00 	call	40041c0 <_dtoa_r>
 400327c:	1021883a 	mov	r16,r2
 4003280:	008019c4 	movi	r2,103
 4003284:	d8c03c17 	ldw	r3,240(sp)
 4003288:	da003d17 	ldw	r8,244(sp)
 400328c:	88817126 	beq	r17,r2,4003854 <___vfprintf_internal_r+0x1dc4>
 4003290:	008011c4 	movi	r2,71
 4003294:	88829126 	beq	r17,r2,4003cdc <___vfprintf_internal_r+0x224c>
 4003298:	80f9883a 	add	fp,r16,r3
 400329c:	d9003617 	ldw	r4,216(sp)
 40032a0:	000d883a 	mov	r6,zero
 40032a4:	000f883a 	mov	r7,zero
 40032a8:	980b883a 	mov	r5,r19
 40032ac:	da003d15 	stw	r8,244(sp)
 40032b0:	400d0600 	call	400d060 <__eqdf2>
 40032b4:	da003d17 	ldw	r8,244(sp)
 40032b8:	10018d26 	beq	r2,zero,40038f0 <___vfprintf_internal_r+0x1e60>
 40032bc:	d8802117 	ldw	r2,132(sp)
 40032c0:	1700062e 	bgeu	r2,fp,40032dc <___vfprintf_internal_r+0x184c>
 40032c4:	01000c04 	movi	r4,48
 40032c8:	10c00044 	addi	r3,r2,1
 40032cc:	d8c02115 	stw	r3,132(sp)
 40032d0:	11000005 	stb	r4,0(r2)
 40032d4:	d8802117 	ldw	r2,132(sp)
 40032d8:	173ffb36 	bltu	r2,fp,40032c8 <__alt_mem_onchip_ram+0xfbf7f2c8>
 40032dc:	1405c83a 	sub	r2,r2,r16
 40032e0:	d8803315 	stw	r2,204(sp)
 40032e4:	008011c4 	movi	r2,71
 40032e8:	b0817626 	beq	r22,r2,40038c4 <___vfprintf_internal_r+0x1e34>
 40032ec:	00801944 	movi	r2,101
 40032f0:	1442800e 	bge	r2,r17,4003cf4 <___vfprintf_internal_r+0x2264>
 40032f4:	d8c02617 	ldw	r3,152(sp)
 40032f8:	00801984 	movi	r2,102
 40032fc:	d8c03215 	stw	r3,200(sp)
 4003300:	8881fe26 	beq	r17,r2,4003afc <___vfprintf_internal_r+0x206c>
 4003304:	d8c03217 	ldw	r3,200(sp)
 4003308:	d9003317 	ldw	r4,204(sp)
 400330c:	1901dd16 	blt	r3,r4,4003a84 <___vfprintf_internal_r+0x1ff4>
 4003310:	9480004c 	andi	r18,r18,1
 4003314:	90022b1e 	bne	r18,zero,4003bc4 <___vfprintf_internal_r+0x2134>
 4003318:	1805883a 	mov	r2,r3
 400331c:	18028316 	blt	r3,zero,4003d2c <___vfprintf_internal_r+0x229c>
 4003320:	d8c03217 	ldw	r3,200(sp)
 4003324:	044019c4 	movi	r17,103
 4003328:	d8c02b15 	stw	r3,172(sp)
 400332c:	df002907 	ldb	fp,164(sp)
 4003330:	e001531e 	bne	fp,zero,4003880 <___vfprintf_internal_r+0x1df0>
 4003334:	df002783 	ldbu	fp,158(sp)
 4003338:	d8802915 	stw	r2,164(sp)
 400333c:	dc802c17 	ldw	r18,176(sp)
 4003340:	d8002a15 	stw	zero,168(sp)
 4003344:	003baf06 	br	4002204 <__alt_mem_onchip_ram+0xfbf7e204>
 4003348:	d8c02e17 	ldw	r3,184(sp)
 400334c:	d9002e17 	ldw	r4,184(sp)
 4003350:	d9402e17 	ldw	r5,184(sp)
 4003354:	18c00017 	ldw	r3,0(r3)
 4003358:	21000117 	ldw	r4,4(r4)
 400335c:	29400204 	addi	r5,r5,8
 4003360:	d8c03615 	stw	r3,216(sp)
 4003364:	d9003815 	stw	r4,224(sp)
 4003368:	d9402e15 	stw	r5,184(sp)
 400336c:	003b5006 	br	40020b0 <__alt_mem_onchip_ram+0xfbf7e0b0>
 4003370:	ac400007 	ldb	r17,0(r21)
 4003374:	003a2806 	br	4001c18 <__alt_mem_onchip_ram+0xfbf7dc18>
 4003378:	9080100c 	andi	r2,r18,64
 400337c:	1000a826 	beq	r2,zero,4003620 <___vfprintf_internal_r+0x1b90>
 4003380:	d8c02e17 	ldw	r3,184(sp)
 4003384:	002d883a 	mov	r22,zero
 4003388:	1cc0000b 	ldhu	r19,0(r3)
 400338c:	18c00104 	addi	r3,r3,4
 4003390:	d8c02e15 	stw	r3,184(sp)
 4003394:	003caf06 	br	4002654 <__alt_mem_onchip_ram+0xfbf7e654>
 4003398:	d9002e17 	ldw	r4,184(sp)
 400339c:	d9402a17 	ldw	r5,168(sp)
 40033a0:	002d883a 	mov	r22,zero
 40033a4:	20800104 	addi	r2,r4,4
 40033a8:	24c00017 	ldw	r19,0(r4)
 40033ac:	283ebb0e 	bge	r5,zero,4002e9c <__alt_mem_onchip_ram+0xfbf7ee9c>
 40033b0:	003ef106 	br	4002f78 <__alt_mem_onchip_ram+0xfbf7ef78>
 40033b4:	9080040c 	andi	r2,r18,16
 40033b8:	1000921e 	bne	r2,zero,4003604 <___vfprintf_internal_r+0x1b74>
 40033bc:	9480100c 	andi	r18,r18,64
 40033c0:	90013926 	beq	r18,zero,40038a8 <___vfprintf_internal_r+0x1e18>
 40033c4:	d9402e17 	ldw	r5,184(sp)
 40033c8:	d8c02f17 	ldw	r3,188(sp)
 40033cc:	28800017 	ldw	r2,0(r5)
 40033d0:	29400104 	addi	r5,r5,4
 40033d4:	d9402e15 	stw	r5,184(sp)
 40033d8:	10c0000d 	sth	r3,0(r2)
 40033dc:	0039e406 	br	4001b70 <__alt_mem_onchip_ram+0xfbf7db70>
 40033e0:	9080100c 	andi	r2,r18,64
 40033e4:	10008026 	beq	r2,zero,40035e8 <___vfprintf_internal_r+0x1b58>
 40033e8:	d8802e17 	ldw	r2,184(sp)
 40033ec:	14c0000f 	ldh	r19,0(r2)
 40033f0:	10800104 	addi	r2,r2,4
 40033f4:	d8802e15 	stw	r2,184(sp)
 40033f8:	982dd7fa 	srai	r22,r19,31
 40033fc:	b005883a 	mov	r2,r22
 4003400:	003af706 	br	4001fe0 <__alt_mem_onchip_ram+0xfbf7dfe0>
 4003404:	9080100c 	andi	r2,r18,64
 4003408:	d8002785 	stb	zero,158(sp)
 400340c:	10008a1e 	bne	r2,zero,4003638 <___vfprintf_internal_r+0x1ba8>
 4003410:	d9002e17 	ldw	r4,184(sp)
 4003414:	d9402a17 	ldw	r5,168(sp)
 4003418:	002d883a 	mov	r22,zero
 400341c:	20800104 	addi	r2,r4,4
 4003420:	24c00017 	ldw	r19,0(r4)
 4003424:	283e4b0e 	bge	r5,zero,4002d54 <__alt_mem_onchip_ram+0xfbf7ed54>
 4003428:	9d86b03a 	or	r3,r19,r22
 400342c:	d8802e15 	stw	r2,184(sp)
 4003430:	183e4c1e 	bne	r3,zero,4002d64 <__alt_mem_onchip_ram+0xfbf7ed64>
 4003434:	0039883a 	mov	fp,zero
 4003438:	0005883a 	mov	r2,zero
 400343c:	003d4006 	br	4002940 <__alt_mem_onchip_ram+0xfbf7e940>
 4003440:	01410074 	movhi	r5,1025
 4003444:	29463384 	addi	r5,r5,6350
 4003448:	d9402c15 	stw	r5,176(sp)
 400344c:	d9402c17 	ldw	r5,176(sp)
 4003450:	1c47883a 	add	r3,r3,r17
 4003454:	10800044 	addi	r2,r2,1
 4003458:	41400015 	stw	r5,0(r8)
 400345c:	44400115 	stw	r17,4(r8)
 4003460:	d8c02015 	stw	r3,128(sp)
 4003464:	d8801f15 	stw	r2,124(sp)
 4003468:	010001c4 	movi	r4,7
 400346c:	20bec816 	blt	r4,r2,4002f90 <__alt_mem_onchip_ram+0xfbf7ef90>
 4003470:	42000204 	addi	r8,r8,8
 4003474:	003ecd06 	br	4002fac <__alt_mem_onchip_ram+0xfbf7efac>
 4003478:	d9002a17 	ldw	r4,168(sp)
 400347c:	d8002785 	stb	zero,158(sp)
 4003480:	203d2d16 	blt	r4,zero,4002938 <__alt_mem_onchip_ram+0xfbf7e938>
 4003484:	00bfdfc4 	movi	r2,-129
 4003488:	90a4703a 	and	r18,r18,r2
 400348c:	003a6106 	br	4001e14 <__alt_mem_onchip_ram+0xfbf7de14>
 4003490:	01010074 	movhi	r4,1025
 4003494:	21063384 	addi	r4,r4,6350
 4003498:	d9002c15 	stw	r4,176(sp)
 400349c:	003bea06 	br	4002448 <__alt_mem_onchip_ram+0xfbf7e448>
 40034a0:	d9002d17 	ldw	r4,180(sp)
 40034a4:	d9801e04 	addi	r6,sp,120
 40034a8:	b80b883a 	mov	r5,r23
 40034ac:	40091280 	call	4009128 <__sprint_r>
 40034b0:	103a7b1e 	bne	r2,zero,4001ea0 <__alt_mem_onchip_ram+0xfbf7dea0>
 40034b4:	d8c02017 	ldw	r3,128(sp)
 40034b8:	da000404 	addi	r8,sp,16
 40034bc:	003d4106 	br	40029c4 <__alt_mem_onchip_ram+0xfbf7e9c4>
 40034c0:	d8801f17 	ldw	r2,124(sp)
 40034c4:	01410074 	movhi	r5,1025
 40034c8:	01000044 	movi	r4,1
 40034cc:	18c00044 	addi	r3,r3,1
 40034d0:	10800044 	addi	r2,r2,1
 40034d4:	29463304 	addi	r5,r5,6348
 40034d8:	41000115 	stw	r4,4(r8)
 40034dc:	41400015 	stw	r5,0(r8)
 40034e0:	d8c02015 	stw	r3,128(sp)
 40034e4:	d8801f15 	stw	r2,124(sp)
 40034e8:	010001c4 	movi	r4,7
 40034ec:	20805c16 	blt	r4,r2,4003660 <___vfprintf_internal_r+0x1bd0>
 40034f0:	42000204 	addi	r8,r8,8
 40034f4:	8800041e 	bne	r17,zero,4003508 <___vfprintf_internal_r+0x1a78>
 40034f8:	d8803317 	ldw	r2,204(sp)
 40034fc:	1000021e 	bne	r2,zero,4003508 <___vfprintf_internal_r+0x1a78>
 4003500:	9080004c 	andi	r2,r18,1
 4003504:	103be726 	beq	r2,zero,40024a4 <__alt_mem_onchip_ram+0xfbf7e4a4>
 4003508:	d9003717 	ldw	r4,220(sp)
 400350c:	d8801f17 	ldw	r2,124(sp)
 4003510:	d9403417 	ldw	r5,208(sp)
 4003514:	20c7883a 	add	r3,r4,r3
 4003518:	10800044 	addi	r2,r2,1
 400351c:	41000115 	stw	r4,4(r8)
 4003520:	41400015 	stw	r5,0(r8)
 4003524:	d8c02015 	stw	r3,128(sp)
 4003528:	d8801f15 	stw	r2,124(sp)
 400352c:	010001c4 	movi	r4,7
 4003530:	20812116 	blt	r4,r2,40039b8 <___vfprintf_internal_r+0x1f28>
 4003534:	42000204 	addi	r8,r8,8
 4003538:	0463c83a 	sub	r17,zero,r17
 400353c:	0440730e 	bge	zero,r17,400370c <___vfprintf_internal_r+0x1c7c>
 4003540:	05800404 	movi	r22,16
 4003544:	b440860e 	bge	r22,r17,4003760 <___vfprintf_internal_r+0x1cd0>
 4003548:	01410074 	movhi	r5,1025
 400354c:	29463384 	addi	r5,r5,6350
 4003550:	d9402c15 	stw	r5,176(sp)
 4003554:	070001c4 	movi	fp,7
 4003558:	dcc02d17 	ldw	r19,180(sp)
 400355c:	00000306 	br	400356c <___vfprintf_internal_r+0x1adc>
 4003560:	42000204 	addi	r8,r8,8
 4003564:	8c7ffc04 	addi	r17,r17,-16
 4003568:	b440800e 	bge	r22,r17,400376c <___vfprintf_internal_r+0x1cdc>
 400356c:	18c00404 	addi	r3,r3,16
 4003570:	10800044 	addi	r2,r2,1
 4003574:	45000015 	stw	r20,0(r8)
 4003578:	45800115 	stw	r22,4(r8)
 400357c:	d8c02015 	stw	r3,128(sp)
 4003580:	d8801f15 	stw	r2,124(sp)
 4003584:	e0bff60e 	bge	fp,r2,4003560 <__alt_mem_onchip_ram+0xfbf7f560>
 4003588:	d9801e04 	addi	r6,sp,120
 400358c:	b80b883a 	mov	r5,r23
 4003590:	9809883a 	mov	r4,r19
 4003594:	40091280 	call	4009128 <__sprint_r>
 4003598:	103a411e 	bne	r2,zero,4001ea0 <__alt_mem_onchip_ram+0xfbf7dea0>
 400359c:	d8c02017 	ldw	r3,128(sp)
 40035a0:	d8801f17 	ldw	r2,124(sp)
 40035a4:	da000404 	addi	r8,sp,16
 40035a8:	003fee06 	br	4003564 <__alt_mem_onchip_ram+0xfbf7f564>
 40035ac:	00bfffc4 	movi	r2,-1
 40035b0:	003a3f06 	br	4001eb0 <__alt_mem_onchip_ram+0xfbf7deb0>
 40035b4:	008011c4 	movi	r2,71
 40035b8:	1440b816 	blt	r2,r17,400389c <___vfprintf_internal_r+0x1e0c>
 40035bc:	04010074 	movhi	r16,1025
 40035c0:	84062504 	addi	r16,r16,6292
 40035c4:	00c000c4 	movi	r3,3
 40035c8:	00bfdfc4 	movi	r2,-129
 40035cc:	d8c02915 	stw	r3,164(sp)
 40035d0:	90a4703a 	and	r18,r18,r2
 40035d4:	df002783 	ldbu	fp,158(sp)
 40035d8:	d8c02b15 	stw	r3,172(sp)
 40035dc:	d8002a15 	stw	zero,168(sp)
 40035e0:	d8003215 	stw	zero,200(sp)
 40035e4:	003b0706 	br	4002204 <__alt_mem_onchip_ram+0xfbf7e204>
 40035e8:	d8c02e17 	ldw	r3,184(sp)
 40035ec:	1cc00017 	ldw	r19,0(r3)
 40035f0:	18c00104 	addi	r3,r3,4
 40035f4:	d8c02e15 	stw	r3,184(sp)
 40035f8:	982dd7fa 	srai	r22,r19,31
 40035fc:	b005883a 	mov	r2,r22
 4003600:	003a7706 	br	4001fe0 <__alt_mem_onchip_ram+0xfbf7dfe0>
 4003604:	d8c02e17 	ldw	r3,184(sp)
 4003608:	d9002f17 	ldw	r4,188(sp)
 400360c:	18800017 	ldw	r2,0(r3)
 4003610:	18c00104 	addi	r3,r3,4
 4003614:	d8c02e15 	stw	r3,184(sp)
 4003618:	11000015 	stw	r4,0(r2)
 400361c:	00395406 	br	4001b70 <__alt_mem_onchip_ram+0xfbf7db70>
 4003620:	d9002e17 	ldw	r4,184(sp)
 4003624:	002d883a 	mov	r22,zero
 4003628:	24c00017 	ldw	r19,0(r4)
 400362c:	21000104 	addi	r4,r4,4
 4003630:	d9002e15 	stw	r4,184(sp)
 4003634:	003c0706 	br	4002654 <__alt_mem_onchip_ram+0xfbf7e654>
 4003638:	d9402e17 	ldw	r5,184(sp)
 400363c:	d8c02a17 	ldw	r3,168(sp)
 4003640:	002d883a 	mov	r22,zero
 4003644:	28800104 	addi	r2,r5,4
 4003648:	2cc0000b 	ldhu	r19,0(r5)
 400364c:	183dc10e 	bge	r3,zero,4002d54 <__alt_mem_onchip_ram+0xfbf7ed54>
 4003650:	003f7506 	br	4003428 <__alt_mem_onchip_ram+0xfbf7f428>
 4003654:	04010074 	movhi	r16,1025
 4003658:	84062304 	addi	r16,r16,6284
 400365c:	003aa706 	br	40020fc <__alt_mem_onchip_ram+0xfbf7e0fc>
 4003660:	d9002d17 	ldw	r4,180(sp)
 4003664:	d9801e04 	addi	r6,sp,120
 4003668:	b80b883a 	mov	r5,r23
 400366c:	40091280 	call	4009128 <__sprint_r>
 4003670:	103a0b1e 	bne	r2,zero,4001ea0 <__alt_mem_onchip_ram+0xfbf7dea0>
 4003674:	dc402617 	ldw	r17,152(sp)
 4003678:	d8c02017 	ldw	r3,128(sp)
 400367c:	da000404 	addi	r8,sp,16
 4003680:	003f9c06 	br	40034f4 <__alt_mem_onchip_ram+0xfbf7f4f4>
 4003684:	ac400043 	ldbu	r17,1(r21)
 4003688:	84000814 	ori	r16,r16,32
 400368c:	ad400044 	addi	r21,r21,1
 4003690:	8c403fcc 	andi	r17,r17,255
 4003694:	8c40201c 	xori	r17,r17,128
 4003698:	8c7fe004 	addi	r17,r17,-128
 400369c:	00395e06 	br	4001c18 <__alt_mem_onchip_ram+0xfbf7dc18>
 40036a0:	d8c02e15 	stw	r3,184(sp)
 40036a4:	0039883a 	mov	fp,zero
 40036a8:	003e3506 	br	4002f80 <__alt_mem_onchip_ram+0xfbf7ef80>
 40036ac:	d9002d17 	ldw	r4,180(sp)
 40036b0:	d9801e04 	addi	r6,sp,120
 40036b4:	b80b883a 	mov	r5,r23
 40036b8:	40091280 	call	4009128 <__sprint_r>
 40036bc:	1039f81e 	bne	r2,zero,4001ea0 <__alt_mem_onchip_ram+0xfbf7dea0>
 40036c0:	d8c02017 	ldw	r3,128(sp)
 40036c4:	da000404 	addi	r8,sp,16
 40036c8:	003cd006 	br	4002a0c <__alt_mem_onchip_ram+0xfbf7ea0c>
 40036cc:	8009883a 	mov	r4,r16
 40036d0:	df003d15 	stw	fp,244(sp)
 40036d4:	40019f80 	call	40019f8 <strlen>
 40036d8:	d8802b15 	stw	r2,172(sp)
 40036dc:	da003d17 	ldw	r8,244(sp)
 40036e0:	103c200e 	bge	r2,zero,4002764 <__alt_mem_onchip_ram+0xfbf7e764>
 40036e4:	0005883a 	mov	r2,zero
 40036e8:	003c1e06 	br	4002764 <__alt_mem_onchip_ram+0xfbf7e764>
 40036ec:	d9002d17 	ldw	r4,180(sp)
 40036f0:	d9801e04 	addi	r6,sp,120
 40036f4:	b80b883a 	mov	r5,r23
 40036f8:	40091280 	call	4009128 <__sprint_r>
 40036fc:	1039e81e 	bne	r2,zero,4001ea0 <__alt_mem_onchip_ram+0xfbf7dea0>
 4003700:	d8c02017 	ldw	r3,128(sp)
 4003704:	d8801f17 	ldw	r2,124(sp)
 4003708:	da000404 	addi	r8,sp,16
 400370c:	d9403317 	ldw	r5,204(sp)
 4003710:	10800044 	addi	r2,r2,1
 4003714:	44000015 	stw	r16,0(r8)
 4003718:	28c7883a 	add	r3,r5,r3
 400371c:	003b5b06 	br	400248c <__alt_mem_onchip_ram+0xfbf7e48c>
 4003720:	01010074 	movhi	r4,1025
 4003724:	21063784 	addi	r4,r4,6366
 4003728:	d9003515 	stw	r4,212(sp)
 400372c:	003af206 	br	40022f8 <__alt_mem_onchip_ram+0xfbf7e2f8>
 4003730:	013fffc4 	movi	r4,-1
 4003734:	003a0806 	br	4001f58 <__alt_mem_onchip_ram+0xfbf7df58>
 4003738:	0023883a 	mov	r17,zero
 400373c:	003d9d06 	br	4002db4 <__alt_mem_onchip_ram+0xfbf7edb4>
 4003740:	d9002d17 	ldw	r4,180(sp)
 4003744:	d9801e04 	addi	r6,sp,120
 4003748:	b80b883a 	mov	r5,r23
 400374c:	40091280 	call	4009128 <__sprint_r>
 4003750:	1039d31e 	bne	r2,zero,4001ea0 <__alt_mem_onchip_ram+0xfbf7dea0>
 4003754:	d8c02017 	ldw	r3,128(sp)
 4003758:	da000404 	addi	r8,sp,16
 400375c:	003d9406 	br	4002db0 <__alt_mem_onchip_ram+0xfbf7edb0>
 4003760:	01010074 	movhi	r4,1025
 4003764:	21063384 	addi	r4,r4,6350
 4003768:	d9002c15 	stw	r4,176(sp)
 400376c:	d9002c17 	ldw	r4,176(sp)
 4003770:	1c47883a 	add	r3,r3,r17
 4003774:	10800044 	addi	r2,r2,1
 4003778:	41000015 	stw	r4,0(r8)
 400377c:	44400115 	stw	r17,4(r8)
 4003780:	d8c02015 	stw	r3,128(sp)
 4003784:	d8801f15 	stw	r2,124(sp)
 4003788:	010001c4 	movi	r4,7
 400378c:	20bfd716 	blt	r4,r2,40036ec <__alt_mem_onchip_ram+0xfbf7f6ec>
 4003790:	42000204 	addi	r8,r8,8
 4003794:	003fdd06 	br	400370c <__alt_mem_onchip_ram+0xfbf7f70c>
 4003798:	d9002d17 	ldw	r4,180(sp)
 400379c:	d9801e04 	addi	r6,sp,120
 40037a0:	b80b883a 	mov	r5,r23
 40037a4:	40091280 	call	4009128 <__sprint_r>
 40037a8:	1039bd1e 	bne	r2,zero,4001ea0 <__alt_mem_onchip_ram+0xfbf7dea0>
 40037ac:	d8802617 	ldw	r2,152(sp)
 40037b0:	d8c02017 	ldw	r3,128(sp)
 40037b4:	da000404 	addi	r8,sp,16
 40037b8:	003e1006 	br	4002ffc <__alt_mem_onchip_ram+0xfbf7effc>
 40037bc:	00800044 	movi	r2,1
 40037c0:	10803fcc 	andi	r2,r2,255
 40037c4:	00c00044 	movi	r3,1
 40037c8:	10fa0d26 	beq	r2,r3,4002000 <__alt_mem_onchip_ram+0xfbf7e000>
 40037cc:	00c00084 	movi	r3,2
 40037d0:	10fbaf26 	beq	r2,r3,4002690 <__alt_mem_onchip_ram+0xfbf7e690>
 40037d4:	003a6d06 	br	400218c <__alt_mem_onchip_ram+0xfbf7e18c>
 40037d8:	01010074 	movhi	r4,1025
 40037dc:	21063784 	addi	r4,r4,6366
 40037e0:	d9003515 	stw	r4,212(sp)
 40037e4:	003b5406 	br	4002538 <__alt_mem_onchip_ram+0xfbf7e538>
 40037e8:	d8802a17 	ldw	r2,168(sp)
 40037ec:	00c00184 	movi	r3,6
 40037f0:	1880012e 	bgeu	r3,r2,40037f8 <___vfprintf_internal_r+0x1d68>
 40037f4:	1805883a 	mov	r2,r3
 40037f8:	d8802b15 	stw	r2,172(sp)
 40037fc:	1000ef16 	blt	r2,zero,4003bbc <___vfprintf_internal_r+0x212c>
 4003800:	04010074 	movhi	r16,1025
 4003804:	d8802915 	stw	r2,164(sp)
 4003808:	dcc02e15 	stw	r19,184(sp)
 400380c:	d8002a15 	stw	zero,168(sp)
 4003810:	d8003215 	stw	zero,200(sp)
 4003814:	84063104 	addi	r16,r16,6340
 4003818:	0039883a 	mov	fp,zero
 400381c:	003a8006 	br	4002220 <__alt_mem_onchip_ram+0xfbf7e220>
 4003820:	0021883a 	mov	r16,zero
 4003824:	003e0706 	br	4003044 <__alt_mem_onchip_ram+0xfbf7f044>
 4003828:	d9002d17 	ldw	r4,180(sp)
 400382c:	d9801e04 	addi	r6,sp,120
 4003830:	b80b883a 	mov	r5,r23
 4003834:	40091280 	call	4009128 <__sprint_r>
 4003838:	1039991e 	bne	r2,zero,4001ea0 <__alt_mem_onchip_ram+0xfbf7dea0>
 400383c:	d8802617 	ldw	r2,152(sp)
 4003840:	d9403317 	ldw	r5,204(sp)
 4003844:	d8c02017 	ldw	r3,128(sp)
 4003848:	da000404 	addi	r8,sp,16
 400384c:	2885c83a 	sub	r2,r5,r2
 4003850:	003dfb06 	br	4003040 <__alt_mem_onchip_ram+0xfbf7f040>
 4003854:	9080004c 	andi	r2,r18,1
 4003858:	103e8f1e 	bne	r2,zero,4003298 <__alt_mem_onchip_ram+0xfbf7f298>
 400385c:	d8802117 	ldw	r2,132(sp)
 4003860:	003e9e06 	br	40032dc <__alt_mem_onchip_ram+0xfbf7f2dc>
 4003864:	1025883a 	mov	r18,r2
 4003868:	0039883a 	mov	fp,zero
 400386c:	00800084 	movi	r2,2
 4003870:	003fd306 	br	40037c0 <__alt_mem_onchip_ram+0xfbf7f7c0>
 4003874:	07000b44 	movi	fp,45
 4003878:	df002785 	stb	fp,158(sp)
 400387c:	003a1b06 	br	40020ec <__alt_mem_onchip_ram+0xfbf7e0ec>
 4003880:	00c00b44 	movi	r3,45
 4003884:	d8c02785 	stb	r3,158(sp)
 4003888:	d8802915 	stw	r2,164(sp)
 400388c:	dc802c17 	ldw	r18,176(sp)
 4003890:	d8002a15 	stw	zero,168(sp)
 4003894:	07000b44 	movi	fp,45
 4003898:	003a5e06 	br	4002214 <__alt_mem_onchip_ram+0xfbf7e214>
 400389c:	04010074 	movhi	r16,1025
 40038a0:	84062604 	addi	r16,r16,6296
 40038a4:	003f4706 	br	40035c4 <__alt_mem_onchip_ram+0xfbf7f5c4>
 40038a8:	d9002e17 	ldw	r4,184(sp)
 40038ac:	d9402f17 	ldw	r5,188(sp)
 40038b0:	20800017 	ldw	r2,0(r4)
 40038b4:	21000104 	addi	r4,r4,4
 40038b8:	d9002e15 	stw	r4,184(sp)
 40038bc:	11400015 	stw	r5,0(r2)
 40038c0:	0038ab06 	br	4001b70 <__alt_mem_onchip_ram+0xfbf7db70>
 40038c4:	dd802617 	ldw	r22,152(sp)
 40038c8:	00bfff44 	movi	r2,-3
 40038cc:	b0801c16 	blt	r22,r2,4003940 <___vfprintf_internal_r+0x1eb0>
 40038d0:	d9402a17 	ldw	r5,168(sp)
 40038d4:	2d801a16 	blt	r5,r22,4003940 <___vfprintf_internal_r+0x1eb0>
 40038d8:	dd803215 	stw	r22,200(sp)
 40038dc:	003e8906 	br	4003304 <__alt_mem_onchip_ram+0xfbf7f304>
 40038e0:	01010074 	movhi	r4,1025
 40038e4:	21063384 	addi	r4,r4,6350
 40038e8:	d9002c15 	stw	r4,176(sp)
 40038ec:	003c9106 	br	4002b34 <__alt_mem_onchip_ram+0xfbf7eb34>
 40038f0:	e005883a 	mov	r2,fp
 40038f4:	003e7906 	br	40032dc <__alt_mem_onchip_ram+0xfbf7f2dc>
 40038f8:	d9002a17 	ldw	r4,168(sp)
 40038fc:	df002783 	ldbu	fp,158(sp)
 4003900:	dcc02e15 	stw	r19,184(sp)
 4003904:	d9002915 	stw	r4,164(sp)
 4003908:	d9002b15 	stw	r4,172(sp)
 400390c:	d8002a15 	stw	zero,168(sp)
 4003910:	d8003215 	stw	zero,200(sp)
 4003914:	003a3b06 	br	4002204 <__alt_mem_onchip_ram+0xfbf7e204>
 4003918:	9080004c 	andi	r2,r18,1
 400391c:	0039883a 	mov	fp,zero
 4003920:	10000426 	beq	r2,zero,4003934 <___vfprintf_internal_r+0x1ea4>
 4003924:	00800c04 	movi	r2,48
 4003928:	dc001dc4 	addi	r16,sp,119
 400392c:	d8801dc5 	stb	r2,119(sp)
 4003930:	003b6406 	br	40026c4 <__alt_mem_onchip_ram+0xfbf7e6c4>
 4003934:	d8002b15 	stw	zero,172(sp)
 4003938:	dc001e04 	addi	r16,sp,120
 400393c:	003a2b06 	br	40021ec <__alt_mem_onchip_ram+0xfbf7e1ec>
 4003940:	8c7fff84 	addi	r17,r17,-2
 4003944:	b5bfffc4 	addi	r22,r22,-1
 4003948:	dd802615 	stw	r22,152(sp)
 400394c:	dc4022c5 	stb	r17,139(sp)
 4003950:	b000bf16 	blt	r22,zero,4003c50 <___vfprintf_internal_r+0x21c0>
 4003954:	00800ac4 	movi	r2,43
 4003958:	d8802305 	stb	r2,140(sp)
 400395c:	00800244 	movi	r2,9
 4003960:	15807016 	blt	r2,r22,4003b24 <___vfprintf_internal_r+0x2094>
 4003964:	00800c04 	movi	r2,48
 4003968:	b5800c04 	addi	r22,r22,48
 400396c:	d8802345 	stb	r2,141(sp)
 4003970:	dd802385 	stb	r22,142(sp)
 4003974:	d88023c4 	addi	r2,sp,143
 4003978:	df0022c4 	addi	fp,sp,139
 400397c:	d8c03317 	ldw	r3,204(sp)
 4003980:	1739c83a 	sub	fp,r2,fp
 4003984:	d9003317 	ldw	r4,204(sp)
 4003988:	e0c7883a 	add	r3,fp,r3
 400398c:	df003a15 	stw	fp,232(sp)
 4003990:	d8c02b15 	stw	r3,172(sp)
 4003994:	00800044 	movi	r2,1
 4003998:	1100b30e 	bge	r2,r4,4003c68 <___vfprintf_internal_r+0x21d8>
 400399c:	d8c02b17 	ldw	r3,172(sp)
 40039a0:	18c00044 	addi	r3,r3,1
 40039a4:	d8c02b15 	stw	r3,172(sp)
 40039a8:	1805883a 	mov	r2,r3
 40039ac:	1800ac16 	blt	r3,zero,4003c60 <___vfprintf_internal_r+0x21d0>
 40039b0:	d8003215 	stw	zero,200(sp)
 40039b4:	003e5d06 	br	400332c <__alt_mem_onchip_ram+0xfbf7f32c>
 40039b8:	d9002d17 	ldw	r4,180(sp)
 40039bc:	d9801e04 	addi	r6,sp,120
 40039c0:	b80b883a 	mov	r5,r23
 40039c4:	40091280 	call	4009128 <__sprint_r>
 40039c8:	1039351e 	bne	r2,zero,4001ea0 <__alt_mem_onchip_ram+0xfbf7dea0>
 40039cc:	dc402617 	ldw	r17,152(sp)
 40039d0:	d8c02017 	ldw	r3,128(sp)
 40039d4:	d8801f17 	ldw	r2,124(sp)
 40039d8:	da000404 	addi	r8,sp,16
 40039dc:	003ed606 	br	4003538 <__alt_mem_onchip_ram+0xfbf7f538>
 40039e0:	182b883a 	mov	r21,r3
 40039e4:	d8002a15 	stw	zero,168(sp)
 40039e8:	00388c06 	br	4001c1c <__alt_mem_onchip_ram+0xfbf7dc1c>
 40039ec:	d8802a17 	ldw	r2,168(sp)
 40039f0:	103e071e 	bne	r2,zero,4003210 <__alt_mem_onchip_ram+0xfbf7f210>
 40039f4:	dc002a15 	stw	r16,168(sp)
 40039f8:	003e0506 	br	4003210 <__alt_mem_onchip_ram+0xfbf7f210>
 40039fc:	d9002a17 	ldw	r4,168(sp)
 4003a00:	20c00044 	addi	r3,r4,1
 4003a04:	003e0f06 	br	4003244 <__alt_mem_onchip_ram+0xfbf7f244>
 4003a08:	01400184 	movi	r5,6
 4003a0c:	d9402a15 	stw	r5,168(sp)
 4003a10:	003dff06 	br	4003210 <__alt_mem_onchip_ram+0xfbf7f210>
 4003a14:	d8802104 	addi	r2,sp,132
 4003a18:	d8800315 	stw	r2,12(sp)
 4003a1c:	d8802504 	addi	r2,sp,148
 4003a20:	d8800215 	stw	r2,8(sp)
 4003a24:	d8802604 	addi	r2,sp,152
 4003a28:	d8800115 	stw	r2,4(sp)
 4003a2c:	d8802a17 	ldw	r2,168(sp)
 4003a30:	d9403617 	ldw	r5,216(sp)
 4003a34:	d9002d17 	ldw	r4,180(sp)
 4003a38:	d8800015 	stw	r2,0(sp)
 4003a3c:	01c000c4 	movi	r7,3
 4003a40:	980d883a 	mov	r6,r19
 4003a44:	da003d15 	stw	r8,244(sp)
 4003a48:	40041c00 	call	40041c0 <_dtoa_r>
 4003a4c:	d8c02a17 	ldw	r3,168(sp)
 4003a50:	da003d17 	ldw	r8,244(sp)
 4003a54:	1021883a 	mov	r16,r2
 4003a58:	10f9883a 	add	fp,r2,r3
 4003a5c:	81000007 	ldb	r4,0(r16)
 4003a60:	00800c04 	movi	r2,48
 4003a64:	20805e26 	beq	r4,r2,4003be0 <___vfprintf_internal_r+0x2150>
 4003a68:	d8c02617 	ldw	r3,152(sp)
 4003a6c:	e0f9883a 	add	fp,fp,r3
 4003a70:	003e0a06 	br	400329c <__alt_mem_onchip_ram+0xfbf7f29c>
 4003a74:	00c00b44 	movi	r3,45
 4003a78:	24e0003c 	xorhi	r19,r4,32768
 4003a7c:	d8c02905 	stb	r3,164(sp)
 4003a80:	003de906 	br	4003228 <__alt_mem_onchip_ram+0xfbf7f228>
 4003a84:	d8c03217 	ldw	r3,200(sp)
 4003a88:	00c07a0e 	bge	zero,r3,4003c74 <___vfprintf_internal_r+0x21e4>
 4003a8c:	00800044 	movi	r2,1
 4003a90:	d9003317 	ldw	r4,204(sp)
 4003a94:	1105883a 	add	r2,r2,r4
 4003a98:	d8802b15 	stw	r2,172(sp)
 4003a9c:	10004e16 	blt	r2,zero,4003bd8 <___vfprintf_internal_r+0x2148>
 4003aa0:	044019c4 	movi	r17,103
 4003aa4:	003e2106 	br	400332c <__alt_mem_onchip_ram+0xfbf7f32c>
 4003aa8:	d9002a17 	ldw	r4,168(sp)
 4003aac:	d8802104 	addi	r2,sp,132
 4003ab0:	d8800315 	stw	r2,12(sp)
 4003ab4:	d9000015 	stw	r4,0(sp)
 4003ab8:	d8802504 	addi	r2,sp,148
 4003abc:	d9403617 	ldw	r5,216(sp)
 4003ac0:	d9002d17 	ldw	r4,180(sp)
 4003ac4:	d8800215 	stw	r2,8(sp)
 4003ac8:	d8802604 	addi	r2,sp,152
 4003acc:	d8800115 	stw	r2,4(sp)
 4003ad0:	01c000c4 	movi	r7,3
 4003ad4:	980d883a 	mov	r6,r19
 4003ad8:	da003d15 	stw	r8,244(sp)
 4003adc:	40041c00 	call	40041c0 <_dtoa_r>
 4003ae0:	d8c02a17 	ldw	r3,168(sp)
 4003ae4:	da003d17 	ldw	r8,244(sp)
 4003ae8:	1021883a 	mov	r16,r2
 4003aec:	00801184 	movi	r2,70
 4003af0:	80f9883a 	add	fp,r16,r3
 4003af4:	88bfd926 	beq	r17,r2,4003a5c <__alt_mem_onchip_ram+0xfbf7fa5c>
 4003af8:	003de806 	br	400329c <__alt_mem_onchip_ram+0xfbf7f29c>
 4003afc:	d9002a17 	ldw	r4,168(sp)
 4003b00:	00c04d0e 	bge	zero,r3,4003c38 <___vfprintf_internal_r+0x21a8>
 4003b04:	2000441e 	bne	r4,zero,4003c18 <___vfprintf_internal_r+0x2188>
 4003b08:	9480004c 	andi	r18,r18,1
 4003b0c:	9000421e 	bne	r18,zero,4003c18 <___vfprintf_internal_r+0x2188>
 4003b10:	1805883a 	mov	r2,r3
 4003b14:	18006f16 	blt	r3,zero,4003cd4 <___vfprintf_internal_r+0x2244>
 4003b18:	d8c03217 	ldw	r3,200(sp)
 4003b1c:	d8c02b15 	stw	r3,172(sp)
 4003b20:	003e0206 	br	400332c <__alt_mem_onchip_ram+0xfbf7f32c>
 4003b24:	df0022c4 	addi	fp,sp,139
 4003b28:	dc002a15 	stw	r16,168(sp)
 4003b2c:	4027883a 	mov	r19,r8
 4003b30:	e021883a 	mov	r16,fp
 4003b34:	b009883a 	mov	r4,r22
 4003b38:	01400284 	movi	r5,10
 4003b3c:	400bcb40 	call	400bcb4 <__modsi3>
 4003b40:	10800c04 	addi	r2,r2,48
 4003b44:	843fffc4 	addi	r16,r16,-1
 4003b48:	b009883a 	mov	r4,r22
 4003b4c:	01400284 	movi	r5,10
 4003b50:	80800005 	stb	r2,0(r16)
 4003b54:	400bc300 	call	400bc30 <__divsi3>
 4003b58:	102d883a 	mov	r22,r2
 4003b5c:	00800244 	movi	r2,9
 4003b60:	15bff416 	blt	r2,r22,4003b34 <__alt_mem_onchip_ram+0xfbf7fb34>
 4003b64:	9811883a 	mov	r8,r19
 4003b68:	b0800c04 	addi	r2,r22,48
 4003b6c:	8027883a 	mov	r19,r16
 4003b70:	997fffc4 	addi	r5,r19,-1
 4003b74:	98bfffc5 	stb	r2,-1(r19)
 4003b78:	dc002a17 	ldw	r16,168(sp)
 4003b7c:	2f006d2e 	bgeu	r5,fp,4003d34 <___vfprintf_internal_r+0x22a4>
 4003b80:	d9c02384 	addi	r7,sp,142
 4003b84:	3ccfc83a 	sub	r7,r7,r19
 4003b88:	d9002344 	addi	r4,sp,141
 4003b8c:	e1cf883a 	add	r7,fp,r7
 4003b90:	00000106 	br	4003b98 <___vfprintf_internal_r+0x2108>
 4003b94:	28800003 	ldbu	r2,0(r5)
 4003b98:	20800005 	stb	r2,0(r4)
 4003b9c:	21000044 	addi	r4,r4,1
 4003ba0:	29400044 	addi	r5,r5,1
 4003ba4:	393ffb1e 	bne	r7,r4,4003b94 <__alt_mem_onchip_ram+0xfbf7fb94>
 4003ba8:	d8802304 	addi	r2,sp,140
 4003bac:	14c5c83a 	sub	r2,r2,r19
 4003bb0:	d8c02344 	addi	r3,sp,141
 4003bb4:	1885883a 	add	r2,r3,r2
 4003bb8:	003f7006 	br	400397c <__alt_mem_onchip_ram+0xfbf7f97c>
 4003bbc:	0005883a 	mov	r2,zero
 4003bc0:	003f0f06 	br	4003800 <__alt_mem_onchip_ram+0xfbf7f800>
 4003bc4:	d8c03217 	ldw	r3,200(sp)
 4003bc8:	18c00044 	addi	r3,r3,1
 4003bcc:	d8c02b15 	stw	r3,172(sp)
 4003bd0:	1805883a 	mov	r2,r3
 4003bd4:	183fb20e 	bge	r3,zero,4003aa0 <__alt_mem_onchip_ram+0xfbf7faa0>
 4003bd8:	0005883a 	mov	r2,zero
 4003bdc:	003fb006 	br	4003aa0 <__alt_mem_onchip_ram+0xfbf7faa0>
 4003be0:	d9003617 	ldw	r4,216(sp)
 4003be4:	000d883a 	mov	r6,zero
 4003be8:	000f883a 	mov	r7,zero
 4003bec:	980b883a 	mov	r5,r19
 4003bf0:	d8c03c15 	stw	r3,240(sp)
 4003bf4:	da003d15 	stw	r8,244(sp)
 4003bf8:	400d0600 	call	400d060 <__eqdf2>
 4003bfc:	d8c03c17 	ldw	r3,240(sp)
 4003c00:	da003d17 	ldw	r8,244(sp)
 4003c04:	103f9826 	beq	r2,zero,4003a68 <__alt_mem_onchip_ram+0xfbf7fa68>
 4003c08:	00800044 	movi	r2,1
 4003c0c:	10c7c83a 	sub	r3,r2,r3
 4003c10:	d8c02615 	stw	r3,152(sp)
 4003c14:	003f9506 	br	4003a6c <__alt_mem_onchip_ram+0xfbf7fa6c>
 4003c18:	d9002a17 	ldw	r4,168(sp)
 4003c1c:	d8c03217 	ldw	r3,200(sp)
 4003c20:	20800044 	addi	r2,r4,1
 4003c24:	1885883a 	add	r2,r3,r2
 4003c28:	d8802b15 	stw	r2,172(sp)
 4003c2c:	103dbf0e 	bge	r2,zero,400332c <__alt_mem_onchip_ram+0xfbf7f32c>
 4003c30:	0005883a 	mov	r2,zero
 4003c34:	003dbd06 	br	400332c <__alt_mem_onchip_ram+0xfbf7f32c>
 4003c38:	2000201e 	bne	r4,zero,4003cbc <___vfprintf_internal_r+0x222c>
 4003c3c:	9480004c 	andi	r18,r18,1
 4003c40:	90001e1e 	bne	r18,zero,4003cbc <___vfprintf_internal_r+0x222c>
 4003c44:	00800044 	movi	r2,1
 4003c48:	d8802b15 	stw	r2,172(sp)
 4003c4c:	003db706 	br	400332c <__alt_mem_onchip_ram+0xfbf7f32c>
 4003c50:	00800b44 	movi	r2,45
 4003c54:	05adc83a 	sub	r22,zero,r22
 4003c58:	d8802305 	stb	r2,140(sp)
 4003c5c:	003f3f06 	br	400395c <__alt_mem_onchip_ram+0xfbf7f95c>
 4003c60:	0005883a 	mov	r2,zero
 4003c64:	003f5206 	br	40039b0 <__alt_mem_onchip_ram+0xfbf7f9b0>
 4003c68:	90a4703a 	and	r18,r18,r2
 4003c6c:	903f4e26 	beq	r18,zero,40039a8 <__alt_mem_onchip_ram+0xfbf7f9a8>
 4003c70:	003f4a06 	br	400399c <__alt_mem_onchip_ram+0xfbf7f99c>
 4003c74:	00800084 	movi	r2,2
 4003c78:	10c5c83a 	sub	r2,r2,r3
 4003c7c:	003f8406 	br	4003a90 <__alt_mem_onchip_ram+0xfbf7fa90>
 4003c80:	d9402e17 	ldw	r5,184(sp)
 4003c84:	d9002e17 	ldw	r4,184(sp)
 4003c88:	ac400043 	ldbu	r17,1(r21)
 4003c8c:	29400017 	ldw	r5,0(r5)
 4003c90:	20800104 	addi	r2,r4,4
 4003c94:	d8802e15 	stw	r2,184(sp)
 4003c98:	d9402a15 	stw	r5,168(sp)
 4003c9c:	182b883a 	mov	r21,r3
 4003ca0:	283e7b0e 	bge	r5,zero,4003690 <__alt_mem_onchip_ram+0xfbf7f690>
 4003ca4:	8c403fcc 	andi	r17,r17,255
 4003ca8:	017fffc4 	movi	r5,-1
 4003cac:	8c40201c 	xori	r17,r17,128
 4003cb0:	d9402a15 	stw	r5,168(sp)
 4003cb4:	8c7fe004 	addi	r17,r17,-128
 4003cb8:	0037d706 	br	4001c18 <__alt_mem_onchip_ram+0xfbf7dc18>
 4003cbc:	d8c02a17 	ldw	r3,168(sp)
 4003cc0:	18c00084 	addi	r3,r3,2
 4003cc4:	d8c02b15 	stw	r3,172(sp)
 4003cc8:	1805883a 	mov	r2,r3
 4003ccc:	183d970e 	bge	r3,zero,400332c <__alt_mem_onchip_ram+0xfbf7f32c>
 4003cd0:	003fd706 	br	4003c30 <__alt_mem_onchip_ram+0xfbf7fc30>
 4003cd4:	0005883a 	mov	r2,zero
 4003cd8:	003f8f06 	br	4003b18 <__alt_mem_onchip_ram+0xfbf7fb18>
 4003cdc:	9080004c 	andi	r2,r18,1
 4003ce0:	103f821e 	bne	r2,zero,4003aec <__alt_mem_onchip_ram+0xfbf7faec>
 4003ce4:	d8802117 	ldw	r2,132(sp)
 4003ce8:	1405c83a 	sub	r2,r2,r16
 4003cec:	d8803315 	stw	r2,204(sp)
 4003cf0:	b47ef426 	beq	r22,r17,40038c4 <__alt_mem_onchip_ram+0xfbf7f8c4>
 4003cf4:	dd802617 	ldw	r22,152(sp)
 4003cf8:	003f1206 	br	4003944 <__alt_mem_onchip_ram+0xfbf7f944>
 4003cfc:	d8c02b03 	ldbu	r3,172(sp)
 4003d00:	d8c02785 	stb	r3,158(sp)
 4003d04:	0038df06 	br	4002084 <__alt_mem_onchip_ram+0xfbf7e084>
 4003d08:	d8c02b03 	ldbu	r3,172(sp)
 4003d0c:	d8c02785 	stb	r3,158(sp)
 4003d10:	0038aa06 	br	4001fbc <__alt_mem_onchip_ram+0xfbf7dfbc>
 4003d14:	d8c02b03 	ldbu	r3,172(sp)
 4003d18:	d8c02785 	stb	r3,158(sp)
 4003d1c:	003a4306 	br	400262c <__alt_mem_onchip_ram+0xfbf7e62c>
 4003d20:	d8c02b03 	ldbu	r3,172(sp)
 4003d24:	d8c02785 	stb	r3,158(sp)
 4003d28:	003af506 	br	4002900 <__alt_mem_onchip_ram+0xfbf7e900>
 4003d2c:	0005883a 	mov	r2,zero
 4003d30:	003d7b06 	br	4003320 <__alt_mem_onchip_ram+0xfbf7f320>
 4003d34:	d8802344 	addi	r2,sp,141
 4003d38:	003f1006 	br	400397c <__alt_mem_onchip_ram+0xfbf7f97c>
 4003d3c:	d8c02b03 	ldbu	r3,172(sp)
 4003d40:	d8c02785 	stb	r3,158(sp)
 4003d44:	0038fd06 	br	400213c <__alt_mem_onchip_ram+0xfbf7e13c>
 4003d48:	d8c02b03 	ldbu	r3,172(sp)
 4003d4c:	d8c02785 	stb	r3,158(sp)
 4003d50:	003a9706 	br	40027b0 <__alt_mem_onchip_ram+0xfbf7e7b0>
 4003d54:	d8c02b03 	ldbu	r3,172(sp)
 4003d58:	d8c02785 	stb	r3,158(sp)
 4003d5c:	003a1806 	br	40025c0 <__alt_mem_onchip_ram+0xfbf7e5c0>
 4003d60:	d8c02b03 	ldbu	r3,172(sp)
 4003d64:	d8c02785 	stb	r3,158(sp)
 4003d68:	003abe06 	br	4002864 <__alt_mem_onchip_ram+0xfbf7e864>

04003d6c <__vfprintf_internal>:
 4003d6c:	00810074 	movhi	r2,1025
 4003d70:	108d4c04 	addi	r2,r2,13616
 4003d74:	300f883a 	mov	r7,r6
 4003d78:	280d883a 	mov	r6,r5
 4003d7c:	200b883a 	mov	r5,r4
 4003d80:	11000017 	ldw	r4,0(r2)
 4003d84:	4001a901 	jmpi	4001a90 <___vfprintf_internal_r>

04003d88 <__sbprintf>:
 4003d88:	2880030b 	ldhu	r2,12(r5)
 4003d8c:	2ac01917 	ldw	r11,100(r5)
 4003d90:	2a80038b 	ldhu	r10,14(r5)
 4003d94:	2a400717 	ldw	r9,28(r5)
 4003d98:	2a000917 	ldw	r8,36(r5)
 4003d9c:	defee204 	addi	sp,sp,-1144
 4003da0:	00c10004 	movi	r3,1024
 4003da4:	dc011a15 	stw	r16,1128(sp)
 4003da8:	10bfff4c 	andi	r2,r2,65533
 4003dac:	2821883a 	mov	r16,r5
 4003db0:	d8cb883a 	add	r5,sp,r3
 4003db4:	dc811c15 	stw	r18,1136(sp)
 4003db8:	dc411b15 	stw	r17,1132(sp)
 4003dbc:	dfc11d15 	stw	ra,1140(sp)
 4003dc0:	2025883a 	mov	r18,r4
 4003dc4:	d881030d 	sth	r2,1036(sp)
 4003dc8:	dac11915 	stw	r11,1124(sp)
 4003dcc:	da81038d 	sth	r10,1038(sp)
 4003dd0:	da410715 	stw	r9,1052(sp)
 4003dd4:	da010915 	stw	r8,1060(sp)
 4003dd8:	dec10015 	stw	sp,1024(sp)
 4003ddc:	dec10415 	stw	sp,1040(sp)
 4003de0:	d8c10215 	stw	r3,1032(sp)
 4003de4:	d8c10515 	stw	r3,1044(sp)
 4003de8:	d8010615 	stw	zero,1048(sp)
 4003dec:	4001a900 	call	4001a90 <___vfprintf_internal_r>
 4003df0:	1023883a 	mov	r17,r2
 4003df4:	10000416 	blt	r2,zero,4003e08 <__sbprintf+0x80>
 4003df8:	d9410004 	addi	r5,sp,1024
 4003dfc:	9009883a 	mov	r4,r18
 4003e00:	4005a640 	call	4005a64 <_fflush_r>
 4003e04:	10000d1e 	bne	r2,zero,4003e3c <__sbprintf+0xb4>
 4003e08:	d881030b 	ldhu	r2,1036(sp)
 4003e0c:	1080100c 	andi	r2,r2,64
 4003e10:	10000326 	beq	r2,zero,4003e20 <__sbprintf+0x98>
 4003e14:	8080030b 	ldhu	r2,12(r16)
 4003e18:	10801014 	ori	r2,r2,64
 4003e1c:	8080030d 	sth	r2,12(r16)
 4003e20:	8805883a 	mov	r2,r17
 4003e24:	dfc11d17 	ldw	ra,1140(sp)
 4003e28:	dc811c17 	ldw	r18,1136(sp)
 4003e2c:	dc411b17 	ldw	r17,1132(sp)
 4003e30:	dc011a17 	ldw	r16,1128(sp)
 4003e34:	dec11e04 	addi	sp,sp,1144
 4003e38:	f800283a 	ret
 4003e3c:	047fffc4 	movi	r17,-1
 4003e40:	003ff106 	br	4003e08 <__alt_mem_onchip_ram+0xfbf7fe08>

04003e44 <__swsetup_r>:
 4003e44:	00810074 	movhi	r2,1025
 4003e48:	defffd04 	addi	sp,sp,-12
 4003e4c:	108d4c04 	addi	r2,r2,13616
 4003e50:	dc400115 	stw	r17,4(sp)
 4003e54:	2023883a 	mov	r17,r4
 4003e58:	11000017 	ldw	r4,0(r2)
 4003e5c:	dc000015 	stw	r16,0(sp)
 4003e60:	dfc00215 	stw	ra,8(sp)
 4003e64:	2821883a 	mov	r16,r5
 4003e68:	20000226 	beq	r4,zero,4003e74 <__swsetup_r+0x30>
 4003e6c:	20800e17 	ldw	r2,56(r4)
 4003e70:	10003126 	beq	r2,zero,4003f38 <__swsetup_r+0xf4>
 4003e74:	8080030b 	ldhu	r2,12(r16)
 4003e78:	10c0020c 	andi	r3,r2,8
 4003e7c:	1009883a 	mov	r4,r2
 4003e80:	18000f26 	beq	r3,zero,4003ec0 <__swsetup_r+0x7c>
 4003e84:	80c00417 	ldw	r3,16(r16)
 4003e88:	18001526 	beq	r3,zero,4003ee0 <__swsetup_r+0x9c>
 4003e8c:	1100004c 	andi	r4,r2,1
 4003e90:	20001c1e 	bne	r4,zero,4003f04 <__swsetup_r+0xc0>
 4003e94:	1080008c 	andi	r2,r2,2
 4003e98:	1000291e 	bne	r2,zero,4003f40 <__swsetup_r+0xfc>
 4003e9c:	80800517 	ldw	r2,20(r16)
 4003ea0:	80800215 	stw	r2,8(r16)
 4003ea4:	18001c26 	beq	r3,zero,4003f18 <__swsetup_r+0xd4>
 4003ea8:	0005883a 	mov	r2,zero
 4003eac:	dfc00217 	ldw	ra,8(sp)
 4003eb0:	dc400117 	ldw	r17,4(sp)
 4003eb4:	dc000017 	ldw	r16,0(sp)
 4003eb8:	dec00304 	addi	sp,sp,12
 4003ebc:	f800283a 	ret
 4003ec0:	2080040c 	andi	r2,r4,16
 4003ec4:	10002e26 	beq	r2,zero,4003f80 <__swsetup_r+0x13c>
 4003ec8:	2080010c 	andi	r2,r4,4
 4003ecc:	10001e1e 	bne	r2,zero,4003f48 <__swsetup_r+0x104>
 4003ed0:	80c00417 	ldw	r3,16(r16)
 4003ed4:	20800214 	ori	r2,r4,8
 4003ed8:	8080030d 	sth	r2,12(r16)
 4003edc:	183feb1e 	bne	r3,zero,4003e8c <__alt_mem_onchip_ram+0xfbf7fe8c>
 4003ee0:	1100a00c 	andi	r4,r2,640
 4003ee4:	01408004 	movi	r5,512
 4003ee8:	217fe826 	beq	r4,r5,4003e8c <__alt_mem_onchip_ram+0xfbf7fe8c>
 4003eec:	800b883a 	mov	r5,r16
 4003ef0:	8809883a 	mov	r4,r17
 4003ef4:	4006a000 	call	4006a00 <__smakebuf_r>
 4003ef8:	8080030b 	ldhu	r2,12(r16)
 4003efc:	80c00417 	ldw	r3,16(r16)
 4003f00:	003fe206 	br	4003e8c <__alt_mem_onchip_ram+0xfbf7fe8c>
 4003f04:	80800517 	ldw	r2,20(r16)
 4003f08:	80000215 	stw	zero,8(r16)
 4003f0c:	0085c83a 	sub	r2,zero,r2
 4003f10:	80800615 	stw	r2,24(r16)
 4003f14:	183fe41e 	bne	r3,zero,4003ea8 <__alt_mem_onchip_ram+0xfbf7fea8>
 4003f18:	80c0030b 	ldhu	r3,12(r16)
 4003f1c:	0005883a 	mov	r2,zero
 4003f20:	1900200c 	andi	r4,r3,128
 4003f24:	203fe126 	beq	r4,zero,4003eac <__alt_mem_onchip_ram+0xfbf7feac>
 4003f28:	18c01014 	ori	r3,r3,64
 4003f2c:	80c0030d 	sth	r3,12(r16)
 4003f30:	00bfffc4 	movi	r2,-1
 4003f34:	003fdd06 	br	4003eac <__alt_mem_onchip_ram+0xfbf7feac>
 4003f38:	4005e500 	call	4005e50 <__sinit>
 4003f3c:	003fcd06 	br	4003e74 <__alt_mem_onchip_ram+0xfbf7fe74>
 4003f40:	0005883a 	mov	r2,zero
 4003f44:	003fd606 	br	4003ea0 <__alt_mem_onchip_ram+0xfbf7fea0>
 4003f48:	81400c17 	ldw	r5,48(r16)
 4003f4c:	28000626 	beq	r5,zero,4003f68 <__swsetup_r+0x124>
 4003f50:	80801004 	addi	r2,r16,64
 4003f54:	28800326 	beq	r5,r2,4003f64 <__swsetup_r+0x120>
 4003f58:	8809883a 	mov	r4,r17
 4003f5c:	4005fc40 	call	4005fc4 <_free_r>
 4003f60:	8100030b 	ldhu	r4,12(r16)
 4003f64:	80000c15 	stw	zero,48(r16)
 4003f68:	80c00417 	ldw	r3,16(r16)
 4003f6c:	00bff6c4 	movi	r2,-37
 4003f70:	1108703a 	and	r4,r2,r4
 4003f74:	80000115 	stw	zero,4(r16)
 4003f78:	80c00015 	stw	r3,0(r16)
 4003f7c:	003fd506 	br	4003ed4 <__alt_mem_onchip_ram+0xfbf7fed4>
 4003f80:	00800244 	movi	r2,9
 4003f84:	88800015 	stw	r2,0(r17)
 4003f88:	20801014 	ori	r2,r4,64
 4003f8c:	8080030d 	sth	r2,12(r16)
 4003f90:	00bfffc4 	movi	r2,-1
 4003f94:	003fc506 	br	4003eac <__alt_mem_onchip_ram+0xfbf7feac>

04003f98 <quorem>:
 4003f98:	defff204 	addi	sp,sp,-56
 4003f9c:	ddc00b15 	stw	r23,44(sp)
 4003fa0:	20800417 	ldw	r2,16(r4)
 4003fa4:	2dc00417 	ldw	r23,16(r5)
 4003fa8:	dfc00d15 	stw	ra,52(sp)
 4003fac:	df000c15 	stw	fp,48(sp)
 4003fb0:	dd800a15 	stw	r22,40(sp)
 4003fb4:	dd400915 	stw	r21,36(sp)
 4003fb8:	dd000815 	stw	r20,32(sp)
 4003fbc:	dcc00715 	stw	r19,28(sp)
 4003fc0:	dc800615 	stw	r18,24(sp)
 4003fc4:	dc400515 	stw	r17,20(sp)
 4003fc8:	dc000415 	stw	r16,16(sp)
 4003fcc:	15c07a16 	blt	r2,r23,40041b8 <quorem+0x220>
 4003fd0:	bdffffc4 	addi	r23,r23,-1
 4003fd4:	bde9883a 	add	r20,r23,r23
 4003fd8:	28c00504 	addi	r3,r5,20
 4003fdc:	a529883a 	add	r20,r20,r20
 4003fe0:	1d39883a 	add	fp,r3,r20
 4003fe4:	24c00504 	addi	r19,r4,20
 4003fe8:	d9400215 	stw	r5,8(sp)
 4003fec:	9d29883a 	add	r20,r19,r20
 4003ff0:	e1400017 	ldw	r5,0(fp)
 4003ff4:	d9000015 	stw	r4,0(sp)
 4003ff8:	a1000017 	ldw	r4,0(r20)
 4003ffc:	29400044 	addi	r5,r5,1
 4004000:	d8c00115 	stw	r3,4(sp)
 4004004:	dd000315 	stw	r20,12(sp)
 4004008:	400bd280 	call	400bd28 <__udivsi3>
 400400c:	1025883a 	mov	r18,r2
 4004010:	10003026 	beq	r2,zero,40040d4 <quorem+0x13c>
 4004014:	dc400117 	ldw	r17,4(sp)
 4004018:	9829883a 	mov	r20,r19
 400401c:	002d883a 	mov	r22,zero
 4004020:	0021883a 	mov	r16,zero
 4004024:	8d400017 	ldw	r21,0(r17)
 4004028:	900b883a 	mov	r5,r18
 400402c:	8c400104 	addi	r17,r17,4
 4004030:	a93fffcc 	andi	r4,r21,65535
 4004034:	40017480 	call	4001748 <__mulsi3>
 4004038:	a808d43a 	srli	r4,r21,16
 400403c:	900b883a 	mov	r5,r18
 4004040:	15ad883a 	add	r22,r2,r22
 4004044:	40017480 	call	4001748 <__mulsi3>
 4004048:	a1000017 	ldw	r4,0(r20)
 400404c:	b00cd43a 	srli	r6,r22,16
 4004050:	b0ffffcc 	andi	r3,r22,65535
 4004054:	217fffcc 	andi	r5,r4,65535
 4004058:	2c21883a 	add	r16,r5,r16
 400405c:	80c7c83a 	sub	r3,r16,r3
 4004060:	2008d43a 	srli	r4,r4,16
 4004064:	1185883a 	add	r2,r2,r6
 4004068:	1821d43a 	srai	r16,r3,16
 400406c:	117fffcc 	andi	r5,r2,65535
 4004070:	2149c83a 	sub	r4,r4,r5
 4004074:	2421883a 	add	r16,r4,r16
 4004078:	8008943a 	slli	r4,r16,16
 400407c:	18ffffcc 	andi	r3,r3,65535
 4004080:	102cd43a 	srli	r22,r2,16
 4004084:	20c8b03a 	or	r4,r4,r3
 4004088:	a1000015 	stw	r4,0(r20)
 400408c:	8021d43a 	srai	r16,r16,16
 4004090:	a5000104 	addi	r20,r20,4
 4004094:	e47fe32e 	bgeu	fp,r17,4004024 <__alt_mem_onchip_ram+0xfbf80024>
 4004098:	d8c00317 	ldw	r3,12(sp)
 400409c:	18800017 	ldw	r2,0(r3)
 40040a0:	10000c1e 	bne	r2,zero,40040d4 <quorem+0x13c>
 40040a4:	18bfff04 	addi	r2,r3,-4
 40040a8:	9880082e 	bgeu	r19,r2,40040cc <quorem+0x134>
 40040ac:	18ffff17 	ldw	r3,-4(r3)
 40040b0:	18000326 	beq	r3,zero,40040c0 <quorem+0x128>
 40040b4:	00000506 	br	40040cc <quorem+0x134>
 40040b8:	10c00017 	ldw	r3,0(r2)
 40040bc:	1800031e 	bne	r3,zero,40040cc <quorem+0x134>
 40040c0:	10bfff04 	addi	r2,r2,-4
 40040c4:	bdffffc4 	addi	r23,r23,-1
 40040c8:	98bffb36 	bltu	r19,r2,40040b8 <__alt_mem_onchip_ram+0xfbf800b8>
 40040cc:	d8c00017 	ldw	r3,0(sp)
 40040d0:	1dc00415 	stw	r23,16(r3)
 40040d4:	d9400217 	ldw	r5,8(sp)
 40040d8:	d9000017 	ldw	r4,0(sp)
 40040dc:	40080b40 	call	40080b4 <__mcmp>
 40040e0:	10002816 	blt	r2,zero,4004184 <quorem+0x1ec>
 40040e4:	dc400117 	ldw	r17,4(sp)
 40040e8:	94800044 	addi	r18,r18,1
 40040ec:	980d883a 	mov	r6,r19
 40040f0:	0007883a 	mov	r3,zero
 40040f4:	31000017 	ldw	r4,0(r6)
 40040f8:	89400017 	ldw	r5,0(r17)
 40040fc:	31800104 	addi	r6,r6,4
 4004100:	20bfffcc 	andi	r2,r4,65535
 4004104:	10c7883a 	add	r3,r2,r3
 4004108:	28bfffcc 	andi	r2,r5,65535
 400410c:	1885c83a 	sub	r2,r3,r2
 4004110:	280ad43a 	srli	r5,r5,16
 4004114:	2008d43a 	srli	r4,r4,16
 4004118:	1007d43a 	srai	r3,r2,16
 400411c:	10bfffcc 	andi	r2,r2,65535
 4004120:	2149c83a 	sub	r4,r4,r5
 4004124:	20c9883a 	add	r4,r4,r3
 4004128:	200a943a 	slli	r5,r4,16
 400412c:	8c400104 	addi	r17,r17,4
 4004130:	2007d43a 	srai	r3,r4,16
 4004134:	2884b03a 	or	r2,r5,r2
 4004138:	30bfff15 	stw	r2,-4(r6)
 400413c:	e47fed2e 	bgeu	fp,r17,40040f4 <__alt_mem_onchip_ram+0xfbf800f4>
 4004140:	bdc5883a 	add	r2,r23,r23
 4004144:	1085883a 	add	r2,r2,r2
 4004148:	9887883a 	add	r3,r19,r2
 400414c:	18800017 	ldw	r2,0(r3)
 4004150:	10000c1e 	bne	r2,zero,4004184 <quorem+0x1ec>
 4004154:	18bfff04 	addi	r2,r3,-4
 4004158:	9880082e 	bgeu	r19,r2,400417c <quorem+0x1e4>
 400415c:	18ffff17 	ldw	r3,-4(r3)
 4004160:	18000326 	beq	r3,zero,4004170 <quorem+0x1d8>
 4004164:	00000506 	br	400417c <quorem+0x1e4>
 4004168:	10c00017 	ldw	r3,0(r2)
 400416c:	1800031e 	bne	r3,zero,400417c <quorem+0x1e4>
 4004170:	10bfff04 	addi	r2,r2,-4
 4004174:	bdffffc4 	addi	r23,r23,-1
 4004178:	98bffb36 	bltu	r19,r2,4004168 <__alt_mem_onchip_ram+0xfbf80168>
 400417c:	d8c00017 	ldw	r3,0(sp)
 4004180:	1dc00415 	stw	r23,16(r3)
 4004184:	9005883a 	mov	r2,r18
 4004188:	dfc00d17 	ldw	ra,52(sp)
 400418c:	df000c17 	ldw	fp,48(sp)
 4004190:	ddc00b17 	ldw	r23,44(sp)
 4004194:	dd800a17 	ldw	r22,40(sp)
 4004198:	dd400917 	ldw	r21,36(sp)
 400419c:	dd000817 	ldw	r20,32(sp)
 40041a0:	dcc00717 	ldw	r19,28(sp)
 40041a4:	dc800617 	ldw	r18,24(sp)
 40041a8:	dc400517 	ldw	r17,20(sp)
 40041ac:	dc000417 	ldw	r16,16(sp)
 40041b0:	dec00e04 	addi	sp,sp,56
 40041b4:	f800283a 	ret
 40041b8:	0005883a 	mov	r2,zero
 40041bc:	003ff206 	br	4004188 <__alt_mem_onchip_ram+0xfbf80188>

040041c0 <_dtoa_r>:
 40041c0:	20801017 	ldw	r2,64(r4)
 40041c4:	deffde04 	addi	sp,sp,-136
 40041c8:	df002015 	stw	fp,128(sp)
 40041cc:	dcc01b15 	stw	r19,108(sp)
 40041d0:	dc801a15 	stw	r18,104(sp)
 40041d4:	dc401915 	stw	r17,100(sp)
 40041d8:	dc001815 	stw	r16,96(sp)
 40041dc:	dfc02115 	stw	ra,132(sp)
 40041e0:	ddc01f15 	stw	r23,124(sp)
 40041e4:	dd801e15 	stw	r22,120(sp)
 40041e8:	dd401d15 	stw	r21,116(sp)
 40041ec:	dd001c15 	stw	r20,112(sp)
 40041f0:	d9c00315 	stw	r7,12(sp)
 40041f4:	2039883a 	mov	fp,r4
 40041f8:	3023883a 	mov	r17,r6
 40041fc:	2825883a 	mov	r18,r5
 4004200:	dc002417 	ldw	r16,144(sp)
 4004204:	3027883a 	mov	r19,r6
 4004208:	10000826 	beq	r2,zero,400422c <_dtoa_r+0x6c>
 400420c:	21801117 	ldw	r6,68(r4)
 4004210:	00c00044 	movi	r3,1
 4004214:	100b883a 	mov	r5,r2
 4004218:	1986983a 	sll	r3,r3,r6
 400421c:	11800115 	stw	r6,4(r2)
 4004220:	10c00215 	stw	r3,8(r2)
 4004224:	40077d80 	call	40077d8 <_Bfree>
 4004228:	e0001015 	stw	zero,64(fp)
 400422c:	88002e16 	blt	r17,zero,40042e8 <_dtoa_r+0x128>
 4004230:	80000015 	stw	zero,0(r16)
 4004234:	889ffc2c 	andhi	r2,r17,32752
 4004238:	00dffc34 	movhi	r3,32752
 400423c:	10c01c26 	beq	r2,r3,40042b0 <_dtoa_r+0xf0>
 4004240:	000d883a 	mov	r6,zero
 4004244:	000f883a 	mov	r7,zero
 4004248:	9009883a 	mov	r4,r18
 400424c:	980b883a 	mov	r5,r19
 4004250:	400d0600 	call	400d060 <__eqdf2>
 4004254:	10002b1e 	bne	r2,zero,4004304 <_dtoa_r+0x144>
 4004258:	d9c02317 	ldw	r7,140(sp)
 400425c:	00800044 	movi	r2,1
 4004260:	38800015 	stw	r2,0(r7)
 4004264:	d8802517 	ldw	r2,148(sp)
 4004268:	10019e26 	beq	r2,zero,40048e4 <_dtoa_r+0x724>
 400426c:	d8c02517 	ldw	r3,148(sp)
 4004270:	00810074 	movhi	r2,1025
 4004274:	10863344 	addi	r2,r2,6349
 4004278:	18800015 	stw	r2,0(r3)
 400427c:	10bfffc4 	addi	r2,r2,-1
 4004280:	dfc02117 	ldw	ra,132(sp)
 4004284:	df002017 	ldw	fp,128(sp)
 4004288:	ddc01f17 	ldw	r23,124(sp)
 400428c:	dd801e17 	ldw	r22,120(sp)
 4004290:	dd401d17 	ldw	r21,116(sp)
 4004294:	dd001c17 	ldw	r20,112(sp)
 4004298:	dcc01b17 	ldw	r19,108(sp)
 400429c:	dc801a17 	ldw	r18,104(sp)
 40042a0:	dc401917 	ldw	r17,100(sp)
 40042a4:	dc001817 	ldw	r16,96(sp)
 40042a8:	dec02204 	addi	sp,sp,136
 40042ac:	f800283a 	ret
 40042b0:	d8c02317 	ldw	r3,140(sp)
 40042b4:	0089c3c4 	movi	r2,9999
 40042b8:	18800015 	stw	r2,0(r3)
 40042bc:	90017726 	beq	r18,zero,400489c <_dtoa_r+0x6dc>
 40042c0:	00810074 	movhi	r2,1025
 40042c4:	10863f04 	addi	r2,r2,6396
 40042c8:	d9002517 	ldw	r4,148(sp)
 40042cc:	203fec26 	beq	r4,zero,4004280 <__alt_mem_onchip_ram+0xfbf80280>
 40042d0:	10c000c7 	ldb	r3,3(r2)
 40042d4:	1801781e 	bne	r3,zero,40048b8 <_dtoa_r+0x6f8>
 40042d8:	10c000c4 	addi	r3,r2,3
 40042dc:	d9802517 	ldw	r6,148(sp)
 40042e0:	30c00015 	stw	r3,0(r6)
 40042e4:	003fe606 	br	4004280 <__alt_mem_onchip_ram+0xfbf80280>
 40042e8:	04e00034 	movhi	r19,32768
 40042ec:	9cffffc4 	addi	r19,r19,-1
 40042f0:	00800044 	movi	r2,1
 40042f4:	8ce6703a 	and	r19,r17,r19
 40042f8:	80800015 	stw	r2,0(r16)
 40042fc:	9823883a 	mov	r17,r19
 4004300:	003fcc06 	br	4004234 <__alt_mem_onchip_ram+0xfbf80234>
 4004304:	d8800204 	addi	r2,sp,8
 4004308:	d8800015 	stw	r2,0(sp)
 400430c:	d9c00104 	addi	r7,sp,4
 4004310:	900b883a 	mov	r5,r18
 4004314:	980d883a 	mov	r6,r19
 4004318:	e009883a 	mov	r4,fp
 400431c:	8820d53a 	srli	r16,r17,20
 4004320:	40084800 	call	4008480 <__d2b>
 4004324:	d8800915 	stw	r2,36(sp)
 4004328:	8001651e 	bne	r16,zero,40048c0 <_dtoa_r+0x700>
 400432c:	dd800217 	ldw	r22,8(sp)
 4004330:	dc000117 	ldw	r16,4(sp)
 4004334:	00800804 	movi	r2,32
 4004338:	b421883a 	add	r16,r22,r16
 400433c:	80c10c84 	addi	r3,r16,1074
 4004340:	10c2d10e 	bge	r2,r3,4004e88 <_dtoa_r+0xcc8>
 4004344:	00801004 	movi	r2,64
 4004348:	81010484 	addi	r4,r16,1042
 400434c:	10c7c83a 	sub	r3,r2,r3
 4004350:	9108d83a 	srl	r4,r18,r4
 4004354:	88e2983a 	sll	r17,r17,r3
 4004358:	2448b03a 	or	r4,r4,r17
 400435c:	400e57c0 	call	400e57c <__floatunsidf>
 4004360:	017f8434 	movhi	r5,65040
 4004364:	01800044 	movi	r6,1
 4004368:	1009883a 	mov	r4,r2
 400436c:	194b883a 	add	r5,r3,r5
 4004370:	843fffc4 	addi	r16,r16,-1
 4004374:	d9801115 	stw	r6,68(sp)
 4004378:	000d883a 	mov	r6,zero
 400437c:	01cffe34 	movhi	r7,16376
 4004380:	400db240 	call	400db24 <__subdf3>
 4004384:	0198dbf4 	movhi	r6,25455
 4004388:	01cff4f4 	movhi	r7,16339
 400438c:	3190d844 	addi	r6,r6,17249
 4004390:	39e1e9c4 	addi	r7,r7,-30809
 4004394:	1009883a 	mov	r4,r2
 4004398:	180b883a 	mov	r5,r3
 400439c:	400d2b80 	call	400d2b8 <__muldf3>
 40043a0:	01a2d874 	movhi	r6,35681
 40043a4:	01cff1f4 	movhi	r7,16327
 40043a8:	31b22cc4 	addi	r6,r6,-14157
 40043ac:	39e28a04 	addi	r7,r7,-30168
 40043b0:	180b883a 	mov	r5,r3
 40043b4:	1009883a 	mov	r4,r2
 40043b8:	400bde40 	call	400bde4 <__adddf3>
 40043bc:	8009883a 	mov	r4,r16
 40043c0:	1029883a 	mov	r20,r2
 40043c4:	1823883a 	mov	r17,r3
 40043c8:	400e4a00 	call	400e4a0 <__floatsidf>
 40043cc:	019427f4 	movhi	r6,20639
 40043d0:	01cff4f4 	movhi	r7,16339
 40043d4:	319e7ec4 	addi	r6,r6,31227
 40043d8:	39d104c4 	addi	r7,r7,17427
 40043dc:	1009883a 	mov	r4,r2
 40043e0:	180b883a 	mov	r5,r3
 40043e4:	400d2b80 	call	400d2b8 <__muldf3>
 40043e8:	100d883a 	mov	r6,r2
 40043ec:	180f883a 	mov	r7,r3
 40043f0:	a009883a 	mov	r4,r20
 40043f4:	880b883a 	mov	r5,r17
 40043f8:	400bde40 	call	400bde4 <__adddf3>
 40043fc:	1009883a 	mov	r4,r2
 4004400:	180b883a 	mov	r5,r3
 4004404:	1029883a 	mov	r20,r2
 4004408:	1823883a 	mov	r17,r3
 400440c:	400e4200 	call	400e420 <__fixdfsi>
 4004410:	000d883a 	mov	r6,zero
 4004414:	000f883a 	mov	r7,zero
 4004418:	a009883a 	mov	r4,r20
 400441c:	880b883a 	mov	r5,r17
 4004420:	d8800515 	stw	r2,20(sp)
 4004424:	400d1c40 	call	400d1c4 <__ledf2>
 4004428:	10028716 	blt	r2,zero,4004e48 <_dtoa_r+0xc88>
 400442c:	d8c00517 	ldw	r3,20(sp)
 4004430:	00800584 	movi	r2,22
 4004434:	10c27536 	bltu	r2,r3,4004e0c <_dtoa_r+0xc4c>
 4004438:	180490fa 	slli	r2,r3,3
 400443c:	00c10074 	movhi	r3,1025
 4004440:	18c65b04 	addi	r3,r3,6508
 4004444:	1885883a 	add	r2,r3,r2
 4004448:	11000017 	ldw	r4,0(r2)
 400444c:	11400117 	ldw	r5,4(r2)
 4004450:	900d883a 	mov	r6,r18
 4004454:	980f883a 	mov	r7,r19
 4004458:	400d0e80 	call	400d0e8 <__gedf2>
 400445c:	00828d0e 	bge	zero,r2,4004e94 <_dtoa_r+0xcd4>
 4004460:	d9000517 	ldw	r4,20(sp)
 4004464:	d8000e15 	stw	zero,56(sp)
 4004468:	213fffc4 	addi	r4,r4,-1
 400446c:	d9000515 	stw	r4,20(sp)
 4004470:	b42dc83a 	sub	r22,r22,r16
 4004474:	b5bfffc4 	addi	r22,r22,-1
 4004478:	b0026f16 	blt	r22,zero,4004e38 <_dtoa_r+0xc78>
 400447c:	d8000815 	stw	zero,32(sp)
 4004480:	d9c00517 	ldw	r7,20(sp)
 4004484:	38026416 	blt	r7,zero,4004e18 <_dtoa_r+0xc58>
 4004488:	b1ed883a 	add	r22,r22,r7
 400448c:	d9c00d15 	stw	r7,52(sp)
 4004490:	d8000a15 	stw	zero,40(sp)
 4004494:	d9800317 	ldw	r6,12(sp)
 4004498:	00800244 	movi	r2,9
 400449c:	11811436 	bltu	r2,r6,40048f0 <_dtoa_r+0x730>
 40044a0:	00800144 	movi	r2,5
 40044a4:	1184e10e 	bge	r2,r6,400582c <_dtoa_r+0x166c>
 40044a8:	31bfff04 	addi	r6,r6,-4
 40044ac:	d9800315 	stw	r6,12(sp)
 40044b0:	0023883a 	mov	r17,zero
 40044b4:	d9800317 	ldw	r6,12(sp)
 40044b8:	008000c4 	movi	r2,3
 40044bc:	30836726 	beq	r6,r2,400525c <_dtoa_r+0x109c>
 40044c0:	1183410e 	bge	r2,r6,40051c8 <_dtoa_r+0x1008>
 40044c4:	d9c00317 	ldw	r7,12(sp)
 40044c8:	00800104 	movi	r2,4
 40044cc:	38827c26 	beq	r7,r2,4004ec0 <_dtoa_r+0xd00>
 40044d0:	00800144 	movi	r2,5
 40044d4:	3884c41e 	bne	r7,r2,40057e8 <_dtoa_r+0x1628>
 40044d8:	00800044 	movi	r2,1
 40044dc:	d8800b15 	stw	r2,44(sp)
 40044e0:	d8c00517 	ldw	r3,20(sp)
 40044e4:	d9002217 	ldw	r4,136(sp)
 40044e8:	1907883a 	add	r3,r3,r4
 40044ec:	19800044 	addi	r6,r3,1
 40044f0:	d8c00c15 	stw	r3,48(sp)
 40044f4:	d9800615 	stw	r6,24(sp)
 40044f8:	0183a40e 	bge	zero,r6,400538c <_dtoa_r+0x11cc>
 40044fc:	d9800617 	ldw	r6,24(sp)
 4004500:	3021883a 	mov	r16,r6
 4004504:	e0001115 	stw	zero,68(fp)
 4004508:	008005c4 	movi	r2,23
 400450c:	1184c92e 	bgeu	r2,r6,4005834 <_dtoa_r+0x1674>
 4004510:	00c00044 	movi	r3,1
 4004514:	00800104 	movi	r2,4
 4004518:	1085883a 	add	r2,r2,r2
 400451c:	11000504 	addi	r4,r2,20
 4004520:	180b883a 	mov	r5,r3
 4004524:	18c00044 	addi	r3,r3,1
 4004528:	313ffb2e 	bgeu	r6,r4,4004518 <__alt_mem_onchip_ram+0xfbf80518>
 400452c:	e1401115 	stw	r5,68(fp)
 4004530:	e009883a 	mov	r4,fp
 4004534:	40077300 	call	4007730 <_Balloc>
 4004538:	d8800715 	stw	r2,28(sp)
 400453c:	e0801015 	stw	r2,64(fp)
 4004540:	00800384 	movi	r2,14
 4004544:	1400f736 	bltu	r2,r16,4004924 <_dtoa_r+0x764>
 4004548:	8800f626 	beq	r17,zero,4004924 <_dtoa_r+0x764>
 400454c:	d9c00517 	ldw	r7,20(sp)
 4004550:	01c39a0e 	bge	zero,r7,40053bc <_dtoa_r+0x11fc>
 4004554:	388003cc 	andi	r2,r7,15
 4004558:	100490fa 	slli	r2,r2,3
 400455c:	382bd13a 	srai	r21,r7,4
 4004560:	00c10074 	movhi	r3,1025
 4004564:	18c65b04 	addi	r3,r3,6508
 4004568:	1885883a 	add	r2,r3,r2
 400456c:	a8c0040c 	andi	r3,r21,16
 4004570:	12400017 	ldw	r9,0(r2)
 4004574:	12000117 	ldw	r8,4(r2)
 4004578:	18037926 	beq	r3,zero,4005360 <_dtoa_r+0x11a0>
 400457c:	00810074 	movhi	r2,1025
 4004580:	10865104 	addi	r2,r2,6468
 4004584:	11800817 	ldw	r6,32(r2)
 4004588:	11c00917 	ldw	r7,36(r2)
 400458c:	9009883a 	mov	r4,r18
 4004590:	980b883a 	mov	r5,r19
 4004594:	da001715 	stw	r8,92(sp)
 4004598:	da401615 	stw	r9,88(sp)
 400459c:	400c6900 	call	400c690 <__divdf3>
 40045a0:	da001717 	ldw	r8,92(sp)
 40045a4:	da401617 	ldw	r9,88(sp)
 40045a8:	ad4003cc 	andi	r21,r21,15
 40045ac:	040000c4 	movi	r16,3
 40045b0:	1023883a 	mov	r17,r2
 40045b4:	1829883a 	mov	r20,r3
 40045b8:	a8001126 	beq	r21,zero,4004600 <_dtoa_r+0x440>
 40045bc:	05c10074 	movhi	r23,1025
 40045c0:	bdc65104 	addi	r23,r23,6468
 40045c4:	4805883a 	mov	r2,r9
 40045c8:	4007883a 	mov	r3,r8
 40045cc:	a980004c 	andi	r6,r21,1
 40045d0:	1009883a 	mov	r4,r2
 40045d4:	a82bd07a 	srai	r21,r21,1
 40045d8:	180b883a 	mov	r5,r3
 40045dc:	30000426 	beq	r6,zero,40045f0 <_dtoa_r+0x430>
 40045e0:	b9800017 	ldw	r6,0(r23)
 40045e4:	b9c00117 	ldw	r7,4(r23)
 40045e8:	84000044 	addi	r16,r16,1
 40045ec:	400d2b80 	call	400d2b8 <__muldf3>
 40045f0:	bdc00204 	addi	r23,r23,8
 40045f4:	a83ff51e 	bne	r21,zero,40045cc <__alt_mem_onchip_ram+0xfbf805cc>
 40045f8:	1013883a 	mov	r9,r2
 40045fc:	1811883a 	mov	r8,r3
 4004600:	480d883a 	mov	r6,r9
 4004604:	400f883a 	mov	r7,r8
 4004608:	8809883a 	mov	r4,r17
 400460c:	a00b883a 	mov	r5,r20
 4004610:	400c6900 	call	400c690 <__divdf3>
 4004614:	d8800f15 	stw	r2,60(sp)
 4004618:	d8c01015 	stw	r3,64(sp)
 400461c:	d8c00e17 	ldw	r3,56(sp)
 4004620:	18000626 	beq	r3,zero,400463c <_dtoa_r+0x47c>
 4004624:	d9000f17 	ldw	r4,60(sp)
 4004628:	d9401017 	ldw	r5,64(sp)
 400462c:	000d883a 	mov	r6,zero
 4004630:	01cffc34 	movhi	r7,16368
 4004634:	400d1c40 	call	400d1c4 <__ledf2>
 4004638:	10040b16 	blt	r2,zero,4005668 <_dtoa_r+0x14a8>
 400463c:	8009883a 	mov	r4,r16
 4004640:	400e4a00 	call	400e4a0 <__floatsidf>
 4004644:	d9800f17 	ldw	r6,60(sp)
 4004648:	d9c01017 	ldw	r7,64(sp)
 400464c:	1009883a 	mov	r4,r2
 4004650:	180b883a 	mov	r5,r3
 4004654:	400d2b80 	call	400d2b8 <__muldf3>
 4004658:	000d883a 	mov	r6,zero
 400465c:	01d00734 	movhi	r7,16412
 4004660:	1009883a 	mov	r4,r2
 4004664:	180b883a 	mov	r5,r3
 4004668:	400bde40 	call	400bde4 <__adddf3>
 400466c:	1021883a 	mov	r16,r2
 4004670:	d8800617 	ldw	r2,24(sp)
 4004674:	047f3034 	movhi	r17,64704
 4004678:	1c63883a 	add	r17,r3,r17
 400467c:	10031826 	beq	r2,zero,40052e0 <_dtoa_r+0x1120>
 4004680:	d8c00517 	ldw	r3,20(sp)
 4004684:	db000617 	ldw	r12,24(sp)
 4004688:	d8c01315 	stw	r3,76(sp)
 400468c:	d9000b17 	ldw	r4,44(sp)
 4004690:	20038f26 	beq	r4,zero,40054d0 <_dtoa_r+0x1310>
 4004694:	60bfffc4 	addi	r2,r12,-1
 4004698:	100490fa 	slli	r2,r2,3
 400469c:	00c10074 	movhi	r3,1025
 40046a0:	18c65b04 	addi	r3,r3,6508
 40046a4:	1885883a 	add	r2,r3,r2
 40046a8:	11800017 	ldw	r6,0(r2)
 40046ac:	11c00117 	ldw	r7,4(r2)
 40046b0:	d8800717 	ldw	r2,28(sp)
 40046b4:	0009883a 	mov	r4,zero
 40046b8:	014ff834 	movhi	r5,16352
 40046bc:	db001615 	stw	r12,88(sp)
 40046c0:	15c00044 	addi	r23,r2,1
 40046c4:	400c6900 	call	400c690 <__divdf3>
 40046c8:	800d883a 	mov	r6,r16
 40046cc:	880f883a 	mov	r7,r17
 40046d0:	1009883a 	mov	r4,r2
 40046d4:	180b883a 	mov	r5,r3
 40046d8:	400db240 	call	400db24 <__subdf3>
 40046dc:	d9401017 	ldw	r5,64(sp)
 40046e0:	d9000f17 	ldw	r4,60(sp)
 40046e4:	102b883a 	mov	r21,r2
 40046e8:	d8c01215 	stw	r3,72(sp)
 40046ec:	400e4200 	call	400e420 <__fixdfsi>
 40046f0:	1009883a 	mov	r4,r2
 40046f4:	1029883a 	mov	r20,r2
 40046f8:	400e4a00 	call	400e4a0 <__floatsidf>
 40046fc:	d9000f17 	ldw	r4,60(sp)
 4004700:	d9401017 	ldw	r5,64(sp)
 4004704:	100d883a 	mov	r6,r2
 4004708:	180f883a 	mov	r7,r3
 400470c:	400db240 	call	400db24 <__subdf3>
 4004710:	1823883a 	mov	r17,r3
 4004714:	d8c00717 	ldw	r3,28(sp)
 4004718:	d9401217 	ldw	r5,72(sp)
 400471c:	a2000c04 	addi	r8,r20,48
 4004720:	1021883a 	mov	r16,r2
 4004724:	1a000005 	stb	r8,0(r3)
 4004728:	800d883a 	mov	r6,r16
 400472c:	880f883a 	mov	r7,r17
 4004730:	a809883a 	mov	r4,r21
 4004734:	4029883a 	mov	r20,r8
 4004738:	400d0e80 	call	400d0e8 <__gedf2>
 400473c:	00841d16 	blt	zero,r2,40057b4 <_dtoa_r+0x15f4>
 4004740:	800d883a 	mov	r6,r16
 4004744:	880f883a 	mov	r7,r17
 4004748:	0009883a 	mov	r4,zero
 400474c:	014ffc34 	movhi	r5,16368
 4004750:	400db240 	call	400db24 <__subdf3>
 4004754:	d9401217 	ldw	r5,72(sp)
 4004758:	100d883a 	mov	r6,r2
 400475c:	180f883a 	mov	r7,r3
 4004760:	a809883a 	mov	r4,r21
 4004764:	400d0e80 	call	400d0e8 <__gedf2>
 4004768:	db001617 	ldw	r12,88(sp)
 400476c:	00840e16 	blt	zero,r2,40057a8 <_dtoa_r+0x15e8>
 4004770:	00800044 	movi	r2,1
 4004774:	13006b0e 	bge	r2,r12,4004924 <_dtoa_r+0x764>
 4004778:	d9000717 	ldw	r4,28(sp)
 400477c:	dd800f15 	stw	r22,60(sp)
 4004780:	dcc01015 	stw	r19,64(sp)
 4004784:	2319883a 	add	r12,r4,r12
 4004788:	dcc01217 	ldw	r19,72(sp)
 400478c:	602d883a 	mov	r22,r12
 4004790:	dc801215 	stw	r18,72(sp)
 4004794:	b825883a 	mov	r18,r23
 4004798:	00000906 	br	40047c0 <_dtoa_r+0x600>
 400479c:	400db240 	call	400db24 <__subdf3>
 40047a0:	a80d883a 	mov	r6,r21
 40047a4:	980f883a 	mov	r7,r19
 40047a8:	1009883a 	mov	r4,r2
 40047ac:	180b883a 	mov	r5,r3
 40047b0:	400d1c40 	call	400d1c4 <__ledf2>
 40047b4:	1003e816 	blt	r2,zero,4005758 <_dtoa_r+0x1598>
 40047b8:	b825883a 	mov	r18,r23
 40047bc:	bd83e926 	beq	r23,r22,4005764 <_dtoa_r+0x15a4>
 40047c0:	a809883a 	mov	r4,r21
 40047c4:	980b883a 	mov	r5,r19
 40047c8:	000d883a 	mov	r6,zero
 40047cc:	01d00934 	movhi	r7,16420
 40047d0:	400d2b80 	call	400d2b8 <__muldf3>
 40047d4:	000d883a 	mov	r6,zero
 40047d8:	01d00934 	movhi	r7,16420
 40047dc:	8009883a 	mov	r4,r16
 40047e0:	880b883a 	mov	r5,r17
 40047e4:	102b883a 	mov	r21,r2
 40047e8:	1827883a 	mov	r19,r3
 40047ec:	400d2b80 	call	400d2b8 <__muldf3>
 40047f0:	180b883a 	mov	r5,r3
 40047f4:	1009883a 	mov	r4,r2
 40047f8:	1821883a 	mov	r16,r3
 40047fc:	1023883a 	mov	r17,r2
 4004800:	400e4200 	call	400e420 <__fixdfsi>
 4004804:	1009883a 	mov	r4,r2
 4004808:	1029883a 	mov	r20,r2
 400480c:	400e4a00 	call	400e4a0 <__floatsidf>
 4004810:	8809883a 	mov	r4,r17
 4004814:	800b883a 	mov	r5,r16
 4004818:	100d883a 	mov	r6,r2
 400481c:	180f883a 	mov	r7,r3
 4004820:	400db240 	call	400db24 <__subdf3>
 4004824:	a5000c04 	addi	r20,r20,48
 4004828:	a80d883a 	mov	r6,r21
 400482c:	980f883a 	mov	r7,r19
 4004830:	1009883a 	mov	r4,r2
 4004834:	180b883a 	mov	r5,r3
 4004838:	95000005 	stb	r20,0(r18)
 400483c:	1021883a 	mov	r16,r2
 4004840:	1823883a 	mov	r17,r3
 4004844:	400d1c40 	call	400d1c4 <__ledf2>
 4004848:	bdc00044 	addi	r23,r23,1
 400484c:	800d883a 	mov	r6,r16
 4004850:	880f883a 	mov	r7,r17
 4004854:	0009883a 	mov	r4,zero
 4004858:	014ffc34 	movhi	r5,16368
 400485c:	103fcf0e 	bge	r2,zero,400479c <__alt_mem_onchip_ram+0xfbf8079c>
 4004860:	d8c01317 	ldw	r3,76(sp)
 4004864:	d8c00515 	stw	r3,20(sp)
 4004868:	d9400917 	ldw	r5,36(sp)
 400486c:	e009883a 	mov	r4,fp
 4004870:	40077d80 	call	40077d8 <_Bfree>
 4004874:	d9000517 	ldw	r4,20(sp)
 4004878:	d9802317 	ldw	r6,140(sp)
 400487c:	d9c02517 	ldw	r7,148(sp)
 4004880:	b8000005 	stb	zero,0(r23)
 4004884:	20800044 	addi	r2,r4,1
 4004888:	30800015 	stw	r2,0(r6)
 400488c:	3802aa26 	beq	r7,zero,4005338 <_dtoa_r+0x1178>
 4004890:	3dc00015 	stw	r23,0(r7)
 4004894:	d8800717 	ldw	r2,28(sp)
 4004898:	003e7906 	br	4004280 <__alt_mem_onchip_ram+0xfbf80280>
 400489c:	00800434 	movhi	r2,16
 40048a0:	10bfffc4 	addi	r2,r2,-1
 40048a4:	88a2703a 	and	r17,r17,r2
 40048a8:	883e851e 	bne	r17,zero,40042c0 <__alt_mem_onchip_ram+0xfbf802c0>
 40048ac:	00810074 	movhi	r2,1025
 40048b0:	10863c04 	addi	r2,r2,6384
 40048b4:	003e8406 	br	40042c8 <__alt_mem_onchip_ram+0xfbf802c8>
 40048b8:	10c00204 	addi	r3,r2,8
 40048bc:	003e8706 	br	40042dc <__alt_mem_onchip_ram+0xfbf802dc>
 40048c0:	01400434 	movhi	r5,16
 40048c4:	297fffc4 	addi	r5,r5,-1
 40048c8:	994a703a 	and	r5,r19,r5
 40048cc:	9009883a 	mov	r4,r18
 40048d0:	843f0044 	addi	r16,r16,-1023
 40048d4:	294ffc34 	orhi	r5,r5,16368
 40048d8:	dd800217 	ldw	r22,8(sp)
 40048dc:	d8001115 	stw	zero,68(sp)
 40048e0:	003ea506 	br	4004378 <__alt_mem_onchip_ram+0xfbf80378>
 40048e4:	00810074 	movhi	r2,1025
 40048e8:	10863304 	addi	r2,r2,6348
 40048ec:	003e6406 	br	4004280 <__alt_mem_onchip_ram+0xfbf80280>
 40048f0:	e0001115 	stw	zero,68(fp)
 40048f4:	000b883a 	mov	r5,zero
 40048f8:	e009883a 	mov	r4,fp
 40048fc:	40077300 	call	4007730 <_Balloc>
 4004900:	01bfffc4 	movi	r6,-1
 4004904:	01c00044 	movi	r7,1
 4004908:	d8800715 	stw	r2,28(sp)
 400490c:	d9800c15 	stw	r6,48(sp)
 4004910:	e0801015 	stw	r2,64(fp)
 4004914:	d8000315 	stw	zero,12(sp)
 4004918:	d9c00b15 	stw	r7,44(sp)
 400491c:	d9800615 	stw	r6,24(sp)
 4004920:	d8002215 	stw	zero,136(sp)
 4004924:	d8800117 	ldw	r2,4(sp)
 4004928:	10008916 	blt	r2,zero,4004b50 <_dtoa_r+0x990>
 400492c:	d9000517 	ldw	r4,20(sp)
 4004930:	00c00384 	movi	r3,14
 4004934:	19008616 	blt	r3,r4,4004b50 <_dtoa_r+0x990>
 4004938:	200490fa 	slli	r2,r4,3
 400493c:	00c10074 	movhi	r3,1025
 4004940:	d9802217 	ldw	r6,136(sp)
 4004944:	18c65b04 	addi	r3,r3,6508
 4004948:	1885883a 	add	r2,r3,r2
 400494c:	14000017 	ldw	r16,0(r2)
 4004950:	14400117 	ldw	r17,4(r2)
 4004954:	30016316 	blt	r6,zero,4004ee4 <_dtoa_r+0xd24>
 4004958:	800d883a 	mov	r6,r16
 400495c:	880f883a 	mov	r7,r17
 4004960:	9009883a 	mov	r4,r18
 4004964:	980b883a 	mov	r5,r19
 4004968:	400c6900 	call	400c690 <__divdf3>
 400496c:	180b883a 	mov	r5,r3
 4004970:	1009883a 	mov	r4,r2
 4004974:	400e4200 	call	400e420 <__fixdfsi>
 4004978:	1009883a 	mov	r4,r2
 400497c:	102b883a 	mov	r21,r2
 4004980:	400e4a00 	call	400e4a0 <__floatsidf>
 4004984:	800d883a 	mov	r6,r16
 4004988:	880f883a 	mov	r7,r17
 400498c:	1009883a 	mov	r4,r2
 4004990:	180b883a 	mov	r5,r3
 4004994:	400d2b80 	call	400d2b8 <__muldf3>
 4004998:	100d883a 	mov	r6,r2
 400499c:	180f883a 	mov	r7,r3
 40049a0:	9009883a 	mov	r4,r18
 40049a4:	980b883a 	mov	r5,r19
 40049a8:	400db240 	call	400db24 <__subdf3>
 40049ac:	d9c00717 	ldw	r7,28(sp)
 40049b0:	1009883a 	mov	r4,r2
 40049b4:	a8800c04 	addi	r2,r21,48
 40049b8:	38800005 	stb	r2,0(r7)
 40049bc:	3dc00044 	addi	r23,r7,1
 40049c0:	d9c00617 	ldw	r7,24(sp)
 40049c4:	01800044 	movi	r6,1
 40049c8:	180b883a 	mov	r5,r3
 40049cc:	2005883a 	mov	r2,r4
 40049d0:	39803826 	beq	r7,r6,4004ab4 <_dtoa_r+0x8f4>
 40049d4:	000d883a 	mov	r6,zero
 40049d8:	01d00934 	movhi	r7,16420
 40049dc:	400d2b80 	call	400d2b8 <__muldf3>
 40049e0:	000d883a 	mov	r6,zero
 40049e4:	000f883a 	mov	r7,zero
 40049e8:	1009883a 	mov	r4,r2
 40049ec:	180b883a 	mov	r5,r3
 40049f0:	1025883a 	mov	r18,r2
 40049f4:	1827883a 	mov	r19,r3
 40049f8:	400d0600 	call	400d060 <__eqdf2>
 40049fc:	103f9a26 	beq	r2,zero,4004868 <__alt_mem_onchip_ram+0xfbf80868>
 4004a00:	d9c00617 	ldw	r7,24(sp)
 4004a04:	d8c00717 	ldw	r3,28(sp)
 4004a08:	b829883a 	mov	r20,r23
 4004a0c:	38bfffc4 	addi	r2,r7,-1
 4004a10:	18ad883a 	add	r22,r3,r2
 4004a14:	00000a06 	br	4004a40 <_dtoa_r+0x880>
 4004a18:	400d2b80 	call	400d2b8 <__muldf3>
 4004a1c:	000d883a 	mov	r6,zero
 4004a20:	000f883a 	mov	r7,zero
 4004a24:	1009883a 	mov	r4,r2
 4004a28:	180b883a 	mov	r5,r3
 4004a2c:	1025883a 	mov	r18,r2
 4004a30:	1827883a 	mov	r19,r3
 4004a34:	b829883a 	mov	r20,r23
 4004a38:	400d0600 	call	400d060 <__eqdf2>
 4004a3c:	103f8a26 	beq	r2,zero,4004868 <__alt_mem_onchip_ram+0xfbf80868>
 4004a40:	800d883a 	mov	r6,r16
 4004a44:	880f883a 	mov	r7,r17
 4004a48:	9009883a 	mov	r4,r18
 4004a4c:	980b883a 	mov	r5,r19
 4004a50:	400c6900 	call	400c690 <__divdf3>
 4004a54:	180b883a 	mov	r5,r3
 4004a58:	1009883a 	mov	r4,r2
 4004a5c:	400e4200 	call	400e420 <__fixdfsi>
 4004a60:	1009883a 	mov	r4,r2
 4004a64:	102b883a 	mov	r21,r2
 4004a68:	400e4a00 	call	400e4a0 <__floatsidf>
 4004a6c:	800d883a 	mov	r6,r16
 4004a70:	880f883a 	mov	r7,r17
 4004a74:	1009883a 	mov	r4,r2
 4004a78:	180b883a 	mov	r5,r3
 4004a7c:	400d2b80 	call	400d2b8 <__muldf3>
 4004a80:	100d883a 	mov	r6,r2
 4004a84:	180f883a 	mov	r7,r3
 4004a88:	9009883a 	mov	r4,r18
 4004a8c:	980b883a 	mov	r5,r19
 4004a90:	400db240 	call	400db24 <__subdf3>
 4004a94:	aa000c04 	addi	r8,r21,48
 4004a98:	a2000005 	stb	r8,0(r20)
 4004a9c:	000d883a 	mov	r6,zero
 4004aa0:	01d00934 	movhi	r7,16420
 4004aa4:	1009883a 	mov	r4,r2
 4004aa8:	180b883a 	mov	r5,r3
 4004aac:	a5c00044 	addi	r23,r20,1
 4004ab0:	b53fd91e 	bne	r22,r20,4004a18 <__alt_mem_onchip_ram+0xfbf80a18>
 4004ab4:	100d883a 	mov	r6,r2
 4004ab8:	180f883a 	mov	r7,r3
 4004abc:	1009883a 	mov	r4,r2
 4004ac0:	180b883a 	mov	r5,r3
 4004ac4:	400bde40 	call	400bde4 <__adddf3>
 4004ac8:	100d883a 	mov	r6,r2
 4004acc:	180f883a 	mov	r7,r3
 4004ad0:	8009883a 	mov	r4,r16
 4004ad4:	880b883a 	mov	r5,r17
 4004ad8:	1027883a 	mov	r19,r2
 4004adc:	1825883a 	mov	r18,r3
 4004ae0:	400d1c40 	call	400d1c4 <__ledf2>
 4004ae4:	10000816 	blt	r2,zero,4004b08 <_dtoa_r+0x948>
 4004ae8:	980d883a 	mov	r6,r19
 4004aec:	900f883a 	mov	r7,r18
 4004af0:	8009883a 	mov	r4,r16
 4004af4:	880b883a 	mov	r5,r17
 4004af8:	400d0600 	call	400d060 <__eqdf2>
 4004afc:	103f5a1e 	bne	r2,zero,4004868 <__alt_mem_onchip_ram+0xfbf80868>
 4004b00:	ad40004c 	andi	r21,r21,1
 4004b04:	a83f5826 	beq	r21,zero,4004868 <__alt_mem_onchip_ram+0xfbf80868>
 4004b08:	bd3fffc3 	ldbu	r20,-1(r23)
 4004b0c:	b8bfffc4 	addi	r2,r23,-1
 4004b10:	1007883a 	mov	r3,r2
 4004b14:	01400e44 	movi	r5,57
 4004b18:	d9800717 	ldw	r6,28(sp)
 4004b1c:	00000506 	br	4004b34 <_dtoa_r+0x974>
 4004b20:	18ffffc4 	addi	r3,r3,-1
 4004b24:	11824726 	beq	r2,r6,4005444 <_dtoa_r+0x1284>
 4004b28:	1d000003 	ldbu	r20,0(r3)
 4004b2c:	102f883a 	mov	r23,r2
 4004b30:	10bfffc4 	addi	r2,r2,-1
 4004b34:	a1003fcc 	andi	r4,r20,255
 4004b38:	2100201c 	xori	r4,r4,128
 4004b3c:	213fe004 	addi	r4,r4,-128
 4004b40:	217ff726 	beq	r4,r5,4004b20 <__alt_mem_onchip_ram+0xfbf80b20>
 4004b44:	a2000044 	addi	r8,r20,1
 4004b48:	12000005 	stb	r8,0(r2)
 4004b4c:	003f4606 	br	4004868 <__alt_mem_onchip_ram+0xfbf80868>
 4004b50:	d9000b17 	ldw	r4,44(sp)
 4004b54:	2000c826 	beq	r4,zero,4004e78 <_dtoa_r+0xcb8>
 4004b58:	d9800317 	ldw	r6,12(sp)
 4004b5c:	00c00044 	movi	r3,1
 4004b60:	1980f90e 	bge	r3,r6,4004f48 <_dtoa_r+0xd88>
 4004b64:	d8800617 	ldw	r2,24(sp)
 4004b68:	d8c00a17 	ldw	r3,40(sp)
 4004b6c:	157fffc4 	addi	r21,r2,-1
 4004b70:	1d41f316 	blt	r3,r21,4005340 <_dtoa_r+0x1180>
 4004b74:	1d6bc83a 	sub	r21,r3,r21
 4004b78:	d9c00617 	ldw	r7,24(sp)
 4004b7c:	3802aa16 	blt	r7,zero,4005628 <_dtoa_r+0x1468>
 4004b80:	dd000817 	ldw	r20,32(sp)
 4004b84:	d8800617 	ldw	r2,24(sp)
 4004b88:	d8c00817 	ldw	r3,32(sp)
 4004b8c:	01400044 	movi	r5,1
 4004b90:	e009883a 	mov	r4,fp
 4004b94:	1887883a 	add	r3,r3,r2
 4004b98:	d8c00815 	stw	r3,32(sp)
 4004b9c:	b0ad883a 	add	r22,r22,r2
 4004ba0:	4007b640 	call	4007b64 <__i2b>
 4004ba4:	1023883a 	mov	r17,r2
 4004ba8:	a0000826 	beq	r20,zero,4004bcc <_dtoa_r+0xa0c>
 4004bac:	0580070e 	bge	zero,r22,4004bcc <_dtoa_r+0xa0c>
 4004bb0:	a005883a 	mov	r2,r20
 4004bb4:	b500b916 	blt	r22,r20,4004e9c <_dtoa_r+0xcdc>
 4004bb8:	d9000817 	ldw	r4,32(sp)
 4004bbc:	a0a9c83a 	sub	r20,r20,r2
 4004bc0:	b0adc83a 	sub	r22,r22,r2
 4004bc4:	2089c83a 	sub	r4,r4,r2
 4004bc8:	d9000815 	stw	r4,32(sp)
 4004bcc:	d9800a17 	ldw	r6,40(sp)
 4004bd0:	0181810e 	bge	zero,r6,40051d8 <_dtoa_r+0x1018>
 4004bd4:	d9c00b17 	ldw	r7,44(sp)
 4004bd8:	3800b326 	beq	r7,zero,4004ea8 <_dtoa_r+0xce8>
 4004bdc:	a800b226 	beq	r21,zero,4004ea8 <_dtoa_r+0xce8>
 4004be0:	880b883a 	mov	r5,r17
 4004be4:	a80d883a 	mov	r6,r21
 4004be8:	e009883a 	mov	r4,fp
 4004bec:	4007e2c0 	call	4007e2c <__pow5mult>
 4004bf0:	d9800917 	ldw	r6,36(sp)
 4004bf4:	100b883a 	mov	r5,r2
 4004bf8:	e009883a 	mov	r4,fp
 4004bfc:	1023883a 	mov	r17,r2
 4004c00:	4007ba00 	call	4007ba0 <__multiply>
 4004c04:	1021883a 	mov	r16,r2
 4004c08:	d8800a17 	ldw	r2,40(sp)
 4004c0c:	d9400917 	ldw	r5,36(sp)
 4004c10:	e009883a 	mov	r4,fp
 4004c14:	1545c83a 	sub	r2,r2,r21
 4004c18:	d8800a15 	stw	r2,40(sp)
 4004c1c:	40077d80 	call	40077d8 <_Bfree>
 4004c20:	d8c00a17 	ldw	r3,40(sp)
 4004c24:	18009f1e 	bne	r3,zero,4004ea4 <_dtoa_r+0xce4>
 4004c28:	05c00044 	movi	r23,1
 4004c2c:	e009883a 	mov	r4,fp
 4004c30:	b80b883a 	mov	r5,r23
 4004c34:	4007b640 	call	4007b64 <__i2b>
 4004c38:	d9000d17 	ldw	r4,52(sp)
 4004c3c:	102b883a 	mov	r21,r2
 4004c40:	2000ce26 	beq	r4,zero,4004f7c <_dtoa_r+0xdbc>
 4004c44:	200d883a 	mov	r6,r4
 4004c48:	100b883a 	mov	r5,r2
 4004c4c:	e009883a 	mov	r4,fp
 4004c50:	4007e2c0 	call	4007e2c <__pow5mult>
 4004c54:	d9800317 	ldw	r6,12(sp)
 4004c58:	102b883a 	mov	r21,r2
 4004c5c:	b981810e 	bge	r23,r6,4005264 <_dtoa_r+0x10a4>
 4004c60:	0027883a 	mov	r19,zero
 4004c64:	a8800417 	ldw	r2,16(r21)
 4004c68:	05c00804 	movi	r23,32
 4004c6c:	10800104 	addi	r2,r2,4
 4004c70:	1085883a 	add	r2,r2,r2
 4004c74:	1085883a 	add	r2,r2,r2
 4004c78:	a885883a 	add	r2,r21,r2
 4004c7c:	11000017 	ldw	r4,0(r2)
 4004c80:	4007a4c0 	call	4007a4c <__hi0bits>
 4004c84:	b885c83a 	sub	r2,r23,r2
 4004c88:	1585883a 	add	r2,r2,r22
 4004c8c:	108007cc 	andi	r2,r2,31
 4004c90:	1000b326 	beq	r2,zero,4004f60 <_dtoa_r+0xda0>
 4004c94:	00c00804 	movi	r3,32
 4004c98:	1887c83a 	sub	r3,r3,r2
 4004c9c:	01000104 	movi	r4,4
 4004ca0:	20c2cd0e 	bge	r4,r3,40057d8 <_dtoa_r+0x1618>
 4004ca4:	00c00704 	movi	r3,28
 4004ca8:	1885c83a 	sub	r2,r3,r2
 4004cac:	d8c00817 	ldw	r3,32(sp)
 4004cb0:	a0a9883a 	add	r20,r20,r2
 4004cb4:	b0ad883a 	add	r22,r22,r2
 4004cb8:	1887883a 	add	r3,r3,r2
 4004cbc:	d8c00815 	stw	r3,32(sp)
 4004cc0:	d9800817 	ldw	r6,32(sp)
 4004cc4:	0180040e 	bge	zero,r6,4004cd8 <_dtoa_r+0xb18>
 4004cc8:	800b883a 	mov	r5,r16
 4004ccc:	e009883a 	mov	r4,fp
 4004cd0:	4007f6c0 	call	4007f6c <__lshift>
 4004cd4:	1021883a 	mov	r16,r2
 4004cd8:	0580050e 	bge	zero,r22,4004cf0 <_dtoa_r+0xb30>
 4004cdc:	a80b883a 	mov	r5,r21
 4004ce0:	b00d883a 	mov	r6,r22
 4004ce4:	e009883a 	mov	r4,fp
 4004ce8:	4007f6c0 	call	4007f6c <__lshift>
 4004cec:	102b883a 	mov	r21,r2
 4004cf0:	d9c00e17 	ldw	r7,56(sp)
 4004cf4:	3801211e 	bne	r7,zero,400517c <_dtoa_r+0xfbc>
 4004cf8:	d9800617 	ldw	r6,24(sp)
 4004cfc:	0181380e 	bge	zero,r6,40051e0 <_dtoa_r+0x1020>
 4004d00:	d8c00b17 	ldw	r3,44(sp)
 4004d04:	1800ab1e 	bne	r3,zero,4004fb4 <_dtoa_r+0xdf4>
 4004d08:	dc800717 	ldw	r18,28(sp)
 4004d0c:	dcc00617 	ldw	r19,24(sp)
 4004d10:	9029883a 	mov	r20,r18
 4004d14:	00000206 	br	4004d20 <_dtoa_r+0xb60>
 4004d18:	40078000 	call	4007800 <__multadd>
 4004d1c:	1021883a 	mov	r16,r2
 4004d20:	a80b883a 	mov	r5,r21
 4004d24:	8009883a 	mov	r4,r16
 4004d28:	4003f980 	call	4003f98 <quorem>
 4004d2c:	10800c04 	addi	r2,r2,48
 4004d30:	90800005 	stb	r2,0(r18)
 4004d34:	94800044 	addi	r18,r18,1
 4004d38:	9507c83a 	sub	r3,r18,r20
 4004d3c:	000f883a 	mov	r7,zero
 4004d40:	01800284 	movi	r6,10
 4004d44:	800b883a 	mov	r5,r16
 4004d48:	e009883a 	mov	r4,fp
 4004d4c:	1cfff216 	blt	r3,r19,4004d18 <__alt_mem_onchip_ram+0xfbf80d18>
 4004d50:	1011883a 	mov	r8,r2
 4004d54:	d8800617 	ldw	r2,24(sp)
 4004d58:	0082370e 	bge	zero,r2,4005638 <_dtoa_r+0x1478>
 4004d5c:	d9000717 	ldw	r4,28(sp)
 4004d60:	0025883a 	mov	r18,zero
 4004d64:	20af883a 	add	r23,r4,r2
 4004d68:	01800044 	movi	r6,1
 4004d6c:	800b883a 	mov	r5,r16
 4004d70:	e009883a 	mov	r4,fp
 4004d74:	da001715 	stw	r8,92(sp)
 4004d78:	4007f6c0 	call	4007f6c <__lshift>
 4004d7c:	a80b883a 	mov	r5,r21
 4004d80:	1009883a 	mov	r4,r2
 4004d84:	d8800915 	stw	r2,36(sp)
 4004d88:	40080b40 	call	40080b4 <__mcmp>
 4004d8c:	da001717 	ldw	r8,92(sp)
 4004d90:	0081800e 	bge	zero,r2,4005394 <_dtoa_r+0x11d4>
 4004d94:	b93fffc3 	ldbu	r4,-1(r23)
 4004d98:	b8bfffc4 	addi	r2,r23,-1
 4004d9c:	1007883a 	mov	r3,r2
 4004da0:	01800e44 	movi	r6,57
 4004da4:	d9c00717 	ldw	r7,28(sp)
 4004da8:	00000506 	br	4004dc0 <_dtoa_r+0xc00>
 4004dac:	18ffffc4 	addi	r3,r3,-1
 4004db0:	11c12326 	beq	r2,r7,4005240 <_dtoa_r+0x1080>
 4004db4:	19000003 	ldbu	r4,0(r3)
 4004db8:	102f883a 	mov	r23,r2
 4004dbc:	10bfffc4 	addi	r2,r2,-1
 4004dc0:	21403fcc 	andi	r5,r4,255
 4004dc4:	2940201c 	xori	r5,r5,128
 4004dc8:	297fe004 	addi	r5,r5,-128
 4004dcc:	29bff726 	beq	r5,r6,4004dac <__alt_mem_onchip_ram+0xfbf80dac>
 4004dd0:	21000044 	addi	r4,r4,1
 4004dd4:	11000005 	stb	r4,0(r2)
 4004dd8:	a80b883a 	mov	r5,r21
 4004ddc:	e009883a 	mov	r4,fp
 4004de0:	40077d80 	call	40077d8 <_Bfree>
 4004de4:	883ea026 	beq	r17,zero,4004868 <__alt_mem_onchip_ram+0xfbf80868>
 4004de8:	90000426 	beq	r18,zero,4004dfc <_dtoa_r+0xc3c>
 4004dec:	94400326 	beq	r18,r17,4004dfc <_dtoa_r+0xc3c>
 4004df0:	900b883a 	mov	r5,r18
 4004df4:	e009883a 	mov	r4,fp
 4004df8:	40077d80 	call	40077d8 <_Bfree>
 4004dfc:	880b883a 	mov	r5,r17
 4004e00:	e009883a 	mov	r4,fp
 4004e04:	40077d80 	call	40077d8 <_Bfree>
 4004e08:	003e9706 	br	4004868 <__alt_mem_onchip_ram+0xfbf80868>
 4004e0c:	01800044 	movi	r6,1
 4004e10:	d9800e15 	stw	r6,56(sp)
 4004e14:	003d9606 	br	4004470 <__alt_mem_onchip_ram+0xfbf80470>
 4004e18:	d8800817 	ldw	r2,32(sp)
 4004e1c:	d8c00517 	ldw	r3,20(sp)
 4004e20:	d8000d15 	stw	zero,52(sp)
 4004e24:	10c5c83a 	sub	r2,r2,r3
 4004e28:	00c9c83a 	sub	r4,zero,r3
 4004e2c:	d8800815 	stw	r2,32(sp)
 4004e30:	d9000a15 	stw	r4,40(sp)
 4004e34:	003d9706 	br	4004494 <__alt_mem_onchip_ram+0xfbf80494>
 4004e38:	05adc83a 	sub	r22,zero,r22
 4004e3c:	dd800815 	stw	r22,32(sp)
 4004e40:	002d883a 	mov	r22,zero
 4004e44:	003d8e06 	br	4004480 <__alt_mem_onchip_ram+0xfbf80480>
 4004e48:	d9000517 	ldw	r4,20(sp)
 4004e4c:	400e4a00 	call	400e4a0 <__floatsidf>
 4004e50:	100d883a 	mov	r6,r2
 4004e54:	180f883a 	mov	r7,r3
 4004e58:	a009883a 	mov	r4,r20
 4004e5c:	880b883a 	mov	r5,r17
 4004e60:	400d0600 	call	400d060 <__eqdf2>
 4004e64:	103d7126 	beq	r2,zero,400442c <__alt_mem_onchip_ram+0xfbf8042c>
 4004e68:	d9c00517 	ldw	r7,20(sp)
 4004e6c:	39ffffc4 	addi	r7,r7,-1
 4004e70:	d9c00515 	stw	r7,20(sp)
 4004e74:	003d6d06 	br	400442c <__alt_mem_onchip_ram+0xfbf8042c>
 4004e78:	dd400a17 	ldw	r21,40(sp)
 4004e7c:	dd000817 	ldw	r20,32(sp)
 4004e80:	0023883a 	mov	r17,zero
 4004e84:	003f4806 	br	4004ba8 <__alt_mem_onchip_ram+0xfbf80ba8>
 4004e88:	10e3c83a 	sub	r17,r2,r3
 4004e8c:	9448983a 	sll	r4,r18,r17
 4004e90:	003d3206 	br	400435c <__alt_mem_onchip_ram+0xfbf8035c>
 4004e94:	d8000e15 	stw	zero,56(sp)
 4004e98:	003d7506 	br	4004470 <__alt_mem_onchip_ram+0xfbf80470>
 4004e9c:	b005883a 	mov	r2,r22
 4004ea0:	003f4506 	br	4004bb8 <__alt_mem_onchip_ram+0xfbf80bb8>
 4004ea4:	dc000915 	stw	r16,36(sp)
 4004ea8:	d9800a17 	ldw	r6,40(sp)
 4004eac:	d9400917 	ldw	r5,36(sp)
 4004eb0:	e009883a 	mov	r4,fp
 4004eb4:	4007e2c0 	call	4007e2c <__pow5mult>
 4004eb8:	1021883a 	mov	r16,r2
 4004ebc:	003f5a06 	br	4004c28 <__alt_mem_onchip_ram+0xfbf80c28>
 4004ec0:	01c00044 	movi	r7,1
 4004ec4:	d9c00b15 	stw	r7,44(sp)
 4004ec8:	d8802217 	ldw	r2,136(sp)
 4004ecc:	0081280e 	bge	zero,r2,4005370 <_dtoa_r+0x11b0>
 4004ed0:	100d883a 	mov	r6,r2
 4004ed4:	1021883a 	mov	r16,r2
 4004ed8:	d8800c15 	stw	r2,48(sp)
 4004edc:	d8800615 	stw	r2,24(sp)
 4004ee0:	003d8806 	br	4004504 <__alt_mem_onchip_ram+0xfbf80504>
 4004ee4:	d8800617 	ldw	r2,24(sp)
 4004ee8:	00be9b16 	blt	zero,r2,4004958 <__alt_mem_onchip_ram+0xfbf80958>
 4004eec:	10010f1e 	bne	r2,zero,400532c <_dtoa_r+0x116c>
 4004ef0:	880b883a 	mov	r5,r17
 4004ef4:	000d883a 	mov	r6,zero
 4004ef8:	01d00534 	movhi	r7,16404
 4004efc:	8009883a 	mov	r4,r16
 4004f00:	400d2b80 	call	400d2b8 <__muldf3>
 4004f04:	900d883a 	mov	r6,r18
 4004f08:	980f883a 	mov	r7,r19
 4004f0c:	1009883a 	mov	r4,r2
 4004f10:	180b883a 	mov	r5,r3
 4004f14:	400d0e80 	call	400d0e8 <__gedf2>
 4004f18:	002b883a 	mov	r21,zero
 4004f1c:	0023883a 	mov	r17,zero
 4004f20:	1000bf16 	blt	r2,zero,4005220 <_dtoa_r+0x1060>
 4004f24:	d9802217 	ldw	r6,136(sp)
 4004f28:	ddc00717 	ldw	r23,28(sp)
 4004f2c:	018c303a 	nor	r6,zero,r6
 4004f30:	d9800515 	stw	r6,20(sp)
 4004f34:	a80b883a 	mov	r5,r21
 4004f38:	e009883a 	mov	r4,fp
 4004f3c:	40077d80 	call	40077d8 <_Bfree>
 4004f40:	883e4926 	beq	r17,zero,4004868 <__alt_mem_onchip_ram+0xfbf80868>
 4004f44:	003fad06 	br	4004dfc <__alt_mem_onchip_ram+0xfbf80dfc>
 4004f48:	d9c01117 	ldw	r7,68(sp)
 4004f4c:	3801bc26 	beq	r7,zero,4005640 <_dtoa_r+0x1480>
 4004f50:	10810cc4 	addi	r2,r2,1075
 4004f54:	dd400a17 	ldw	r21,40(sp)
 4004f58:	dd000817 	ldw	r20,32(sp)
 4004f5c:	003f0a06 	br	4004b88 <__alt_mem_onchip_ram+0xfbf80b88>
 4004f60:	00800704 	movi	r2,28
 4004f64:	d9000817 	ldw	r4,32(sp)
 4004f68:	a0a9883a 	add	r20,r20,r2
 4004f6c:	b0ad883a 	add	r22,r22,r2
 4004f70:	2089883a 	add	r4,r4,r2
 4004f74:	d9000815 	stw	r4,32(sp)
 4004f78:	003f5106 	br	4004cc0 <__alt_mem_onchip_ram+0xfbf80cc0>
 4004f7c:	d8c00317 	ldw	r3,12(sp)
 4004f80:	b8c1fc0e 	bge	r23,r3,4005774 <_dtoa_r+0x15b4>
 4004f84:	0027883a 	mov	r19,zero
 4004f88:	b805883a 	mov	r2,r23
 4004f8c:	003f3e06 	br	4004c88 <__alt_mem_onchip_ram+0xfbf80c88>
 4004f90:	880b883a 	mov	r5,r17
 4004f94:	e009883a 	mov	r4,fp
 4004f98:	000f883a 	mov	r7,zero
 4004f9c:	01800284 	movi	r6,10
 4004fa0:	40078000 	call	4007800 <__multadd>
 4004fa4:	d9000c17 	ldw	r4,48(sp)
 4004fa8:	1023883a 	mov	r17,r2
 4004fac:	0102040e 	bge	zero,r4,40057c0 <_dtoa_r+0x1600>
 4004fb0:	d9000615 	stw	r4,24(sp)
 4004fb4:	0500050e 	bge	zero,r20,4004fcc <_dtoa_r+0xe0c>
 4004fb8:	880b883a 	mov	r5,r17
 4004fbc:	a00d883a 	mov	r6,r20
 4004fc0:	e009883a 	mov	r4,fp
 4004fc4:	4007f6c0 	call	4007f6c <__lshift>
 4004fc8:	1023883a 	mov	r17,r2
 4004fcc:	9801241e 	bne	r19,zero,4005460 <_dtoa_r+0x12a0>
 4004fd0:	8829883a 	mov	r20,r17
 4004fd4:	d9000617 	ldw	r4,24(sp)
 4004fd8:	dcc00717 	ldw	r19,28(sp)
 4004fdc:	9480004c 	andi	r18,r18,1
 4004fe0:	20bfffc4 	addi	r2,r4,-1
 4004fe4:	9885883a 	add	r2,r19,r2
 4004fe8:	d8800415 	stw	r2,16(sp)
 4004fec:	dc800615 	stw	r18,24(sp)
 4004ff0:	a80b883a 	mov	r5,r21
 4004ff4:	8009883a 	mov	r4,r16
 4004ff8:	4003f980 	call	4003f98 <quorem>
 4004ffc:	880b883a 	mov	r5,r17
 4005000:	8009883a 	mov	r4,r16
 4005004:	102f883a 	mov	r23,r2
 4005008:	40080b40 	call	40080b4 <__mcmp>
 400500c:	a80b883a 	mov	r5,r21
 4005010:	a00d883a 	mov	r6,r20
 4005014:	e009883a 	mov	r4,fp
 4005018:	102d883a 	mov	r22,r2
 400501c:	40081140 	call	4008114 <__mdiff>
 4005020:	1007883a 	mov	r3,r2
 4005024:	10800317 	ldw	r2,12(r2)
 4005028:	bc800c04 	addi	r18,r23,48
 400502c:	180b883a 	mov	r5,r3
 4005030:	10004e1e 	bne	r2,zero,400516c <_dtoa_r+0xfac>
 4005034:	8009883a 	mov	r4,r16
 4005038:	d8c01615 	stw	r3,88(sp)
 400503c:	40080b40 	call	40080b4 <__mcmp>
 4005040:	d8c01617 	ldw	r3,88(sp)
 4005044:	e009883a 	mov	r4,fp
 4005048:	d8801615 	stw	r2,88(sp)
 400504c:	180b883a 	mov	r5,r3
 4005050:	40077d80 	call	40077d8 <_Bfree>
 4005054:	d8801617 	ldw	r2,88(sp)
 4005058:	1000041e 	bne	r2,zero,400506c <_dtoa_r+0xeac>
 400505c:	d9800317 	ldw	r6,12(sp)
 4005060:	3000021e 	bne	r6,zero,400506c <_dtoa_r+0xeac>
 4005064:	d8c00617 	ldw	r3,24(sp)
 4005068:	18003726 	beq	r3,zero,4005148 <_dtoa_r+0xf88>
 400506c:	b0002016 	blt	r22,zero,40050f0 <_dtoa_r+0xf30>
 4005070:	b000041e 	bne	r22,zero,4005084 <_dtoa_r+0xec4>
 4005074:	d9000317 	ldw	r4,12(sp)
 4005078:	2000021e 	bne	r4,zero,4005084 <_dtoa_r+0xec4>
 400507c:	d8c00617 	ldw	r3,24(sp)
 4005080:	18001b26 	beq	r3,zero,40050f0 <_dtoa_r+0xf30>
 4005084:	00810716 	blt	zero,r2,40054a4 <_dtoa_r+0x12e4>
 4005088:	d8c00417 	ldw	r3,16(sp)
 400508c:	9d800044 	addi	r22,r19,1
 4005090:	9c800005 	stb	r18,0(r19)
 4005094:	b02f883a 	mov	r23,r22
 4005098:	98c10626 	beq	r19,r3,40054b4 <_dtoa_r+0x12f4>
 400509c:	800b883a 	mov	r5,r16
 40050a0:	000f883a 	mov	r7,zero
 40050a4:	01800284 	movi	r6,10
 40050a8:	e009883a 	mov	r4,fp
 40050ac:	40078000 	call	4007800 <__multadd>
 40050b0:	1021883a 	mov	r16,r2
 40050b4:	000f883a 	mov	r7,zero
 40050b8:	01800284 	movi	r6,10
 40050bc:	880b883a 	mov	r5,r17
 40050c0:	e009883a 	mov	r4,fp
 40050c4:	8d002526 	beq	r17,r20,400515c <_dtoa_r+0xf9c>
 40050c8:	40078000 	call	4007800 <__multadd>
 40050cc:	a00b883a 	mov	r5,r20
 40050d0:	000f883a 	mov	r7,zero
 40050d4:	01800284 	movi	r6,10
 40050d8:	e009883a 	mov	r4,fp
 40050dc:	1023883a 	mov	r17,r2
 40050e0:	40078000 	call	4007800 <__multadd>
 40050e4:	1029883a 	mov	r20,r2
 40050e8:	b027883a 	mov	r19,r22
 40050ec:	003fc006 	br	4004ff0 <__alt_mem_onchip_ram+0xfbf80ff0>
 40050f0:	9011883a 	mov	r8,r18
 40050f4:	00800e0e 	bge	zero,r2,4005130 <_dtoa_r+0xf70>
 40050f8:	800b883a 	mov	r5,r16
 40050fc:	01800044 	movi	r6,1
 4005100:	e009883a 	mov	r4,fp
 4005104:	da001715 	stw	r8,92(sp)
 4005108:	4007f6c0 	call	4007f6c <__lshift>
 400510c:	a80b883a 	mov	r5,r21
 4005110:	1009883a 	mov	r4,r2
 4005114:	1021883a 	mov	r16,r2
 4005118:	40080b40 	call	40080b4 <__mcmp>
 400511c:	da001717 	ldw	r8,92(sp)
 4005120:	0081960e 	bge	zero,r2,400577c <_dtoa_r+0x15bc>
 4005124:	00800e44 	movi	r2,57
 4005128:	40817026 	beq	r8,r2,40056ec <_dtoa_r+0x152c>
 400512c:	ba000c44 	addi	r8,r23,49
 4005130:	8825883a 	mov	r18,r17
 4005134:	9dc00044 	addi	r23,r19,1
 4005138:	9a000005 	stb	r8,0(r19)
 400513c:	a023883a 	mov	r17,r20
 4005140:	dc000915 	stw	r16,36(sp)
 4005144:	003f2406 	br	4004dd8 <__alt_mem_onchip_ram+0xfbf80dd8>
 4005148:	00800e44 	movi	r2,57
 400514c:	9011883a 	mov	r8,r18
 4005150:	90816626 	beq	r18,r2,40056ec <_dtoa_r+0x152c>
 4005154:	05bff516 	blt	zero,r22,400512c <__alt_mem_onchip_ram+0xfbf8112c>
 4005158:	003ff506 	br	4005130 <__alt_mem_onchip_ram+0xfbf81130>
 400515c:	40078000 	call	4007800 <__multadd>
 4005160:	1023883a 	mov	r17,r2
 4005164:	1029883a 	mov	r20,r2
 4005168:	003fdf06 	br	40050e8 <__alt_mem_onchip_ram+0xfbf810e8>
 400516c:	e009883a 	mov	r4,fp
 4005170:	40077d80 	call	40077d8 <_Bfree>
 4005174:	00800044 	movi	r2,1
 4005178:	003fbc06 	br	400506c <__alt_mem_onchip_ram+0xfbf8106c>
 400517c:	a80b883a 	mov	r5,r21
 4005180:	8009883a 	mov	r4,r16
 4005184:	40080b40 	call	40080b4 <__mcmp>
 4005188:	103edb0e 	bge	r2,zero,4004cf8 <__alt_mem_onchip_ram+0xfbf80cf8>
 400518c:	800b883a 	mov	r5,r16
 4005190:	000f883a 	mov	r7,zero
 4005194:	01800284 	movi	r6,10
 4005198:	e009883a 	mov	r4,fp
 400519c:	40078000 	call	4007800 <__multadd>
 40051a0:	1021883a 	mov	r16,r2
 40051a4:	d8800517 	ldw	r2,20(sp)
 40051a8:	d8c00b17 	ldw	r3,44(sp)
 40051ac:	10bfffc4 	addi	r2,r2,-1
 40051b0:	d8800515 	stw	r2,20(sp)
 40051b4:	183f761e 	bne	r3,zero,4004f90 <__alt_mem_onchip_ram+0xfbf80f90>
 40051b8:	d9000c17 	ldw	r4,48(sp)
 40051bc:	0101730e 	bge	zero,r4,400578c <_dtoa_r+0x15cc>
 40051c0:	d9000615 	stw	r4,24(sp)
 40051c4:	003ed006 	br	4004d08 <__alt_mem_onchip_ram+0xfbf80d08>
 40051c8:	00800084 	movi	r2,2
 40051cc:	3081861e 	bne	r6,r2,40057e8 <_dtoa_r+0x1628>
 40051d0:	d8000b15 	stw	zero,44(sp)
 40051d4:	003f3c06 	br	4004ec8 <__alt_mem_onchip_ram+0xfbf80ec8>
 40051d8:	dc000917 	ldw	r16,36(sp)
 40051dc:	003e9206 	br	4004c28 <__alt_mem_onchip_ram+0xfbf80c28>
 40051e0:	d9c00317 	ldw	r7,12(sp)
 40051e4:	00800084 	movi	r2,2
 40051e8:	11fec50e 	bge	r2,r7,4004d00 <__alt_mem_onchip_ram+0xfbf80d00>
 40051ec:	d9000617 	ldw	r4,24(sp)
 40051f0:	20013c1e 	bne	r4,zero,40056e4 <_dtoa_r+0x1524>
 40051f4:	a80b883a 	mov	r5,r21
 40051f8:	000f883a 	mov	r7,zero
 40051fc:	01800144 	movi	r6,5
 4005200:	e009883a 	mov	r4,fp
 4005204:	40078000 	call	4007800 <__multadd>
 4005208:	100b883a 	mov	r5,r2
 400520c:	8009883a 	mov	r4,r16
 4005210:	102b883a 	mov	r21,r2
 4005214:	40080b40 	call	40080b4 <__mcmp>
 4005218:	dc000915 	stw	r16,36(sp)
 400521c:	00bf410e 	bge	zero,r2,4004f24 <__alt_mem_onchip_ram+0xfbf80f24>
 4005220:	d9c00717 	ldw	r7,28(sp)
 4005224:	00800c44 	movi	r2,49
 4005228:	38800005 	stb	r2,0(r7)
 400522c:	d8800517 	ldw	r2,20(sp)
 4005230:	3dc00044 	addi	r23,r7,1
 4005234:	10800044 	addi	r2,r2,1
 4005238:	d8800515 	stw	r2,20(sp)
 400523c:	003f3d06 	br	4004f34 <__alt_mem_onchip_ram+0xfbf80f34>
 4005240:	d9800517 	ldw	r6,20(sp)
